---
triple:          'x86_64-apple-darwin'
binary-path:     a.out
relocations:
  - { offset: 0x66A8, size: 0x8, addend: 0x0, symName: __ZNSt3__124__put_character_sequenceB8ne180100IcNS_11char_traitsIcEEEERNS_13basic_ostreamIT_T0_EES7_PKS4_m, symObjAddr: 0x6A50, symBinAddr: 0x100007F30, symSize: 0x1F0 }
  - { offset: 0x750D, size: 0x8, addend: 0x0, symName: __ZNSt3__16copy_nB8ne180100IPKcmPcLi0EEET1_T_T0_S4_, symObjAddr: 0x7D60, symBinAddr: 0x100009240, symSize: 0x40 }
  - { offset: 0x85B1, size: 0x8, addend: 0x0, symName: __ZNSt3__1lsB8ne180100INS_11char_traitsIcEEEERNS_13basic_ostreamIcT_EES6_PKc, symObjAddr: 0x650, symBinAddr: 0x100001B30, symSize: 0x40 }
  - { offset: 0x85F7, size: 0x8, addend: 0x0, symName: __ZNSt3__14endlB8ne180100IcNS_11char_traitsIcEEEERNS_13basic_ostreamIT_T0_EES7_, symObjAddr: 0x6B0, symBinAddr: 0x100001B90, symSize: 0x50 }
  - { offset: 0x937C, size: 0x8, addend: 0x0, symName: __ZNSt3__1plB8ne180100IcNS_11char_traitsIcEENS_9allocatorIcEEEENS_12basic_stringIT_T0_T1_EERKS9_PKS6_, symObjAddr: 0xE20, symBinAddr: 0x100002300, symSize: 0xF0 }
  - { offset: 0x9588, size: 0x8, addend: 0x0, symName: __ZNSt3__1lsB8ne180100IcNS_11char_traitsIcEENS_9allocatorIcEEEERNS_13basic_ostreamIT_T0_EES9_RKNS_12basic_stringIS6_S7_T1_EE, symObjAddr: 0x1070, symBinAddr: 0x100002550, symSize: 0x50 }
  - { offset: 0x97CA, size: 0x8, addend: 0x0, symName: __ZNSt3__1lsB8ne180100INS_11char_traitsIcEEEERNS_13basic_ostreamIcT_EES6_c, symObjAddr: 0x4200, symBinAddr: 0x1000056E0, symSize: 0x30 }
  - { offset: 0x9810, size: 0x8, addend: 0x0, symName: __ZNSt3__122__make_exception_guardB8ne180100INS_6vectorI5TokenNS_9allocatorIS2_EEE16__destroy_vectorEEENS_28__exception_guard_exceptionsIT_EES8_, symObjAddr: 0x4610, symBinAddr: 0x100005AF0, symSize: 0x40 }
  - { offset: 0x9845, size: 0x8, addend: 0x0, symName: __ZNSt3__119__allocate_at_leastB8ne180100INS_9allocatorI5TokenEEEENS_19__allocation_resultINS_16allocator_traitsIT_E7pointerEEERS6_m, symObjAddr: 0x48E0, symBinAddr: 0x100005DC0, symSize: 0x40 }
  - { offset: 0x9888, size: 0x8, addend: 0x0, symName: __ZNSt3__13minB8ne180100ImEERKT_S3_S3_, symObjAddr: 0x4970, symBinAddr: 0x100005E50, symSize: 0x30 }
  - { offset: 0x9ACC, size: 0x8, addend: 0x0, symName: __ZNSt3__13minB8ne180100ImNS_6__lessIvvEEEERKT_S5_S5_T0_, symObjAddr: 0x49E0, symBinAddr: 0x100005EC0, symSize: 0x50 }
  - { offset: 0x9B6B, size: 0x8, addend: 0x0, symName: __ZNSt3__120__throw_length_errorB8ne180100EPKc, symObjAddr: 0x4A90, symBinAddr: 0x100005F70, symSize: 0x70 }
  - { offset: 0x9B93, size: 0x8, addend: 0x0, symName: __ZNSt3__117__libcpp_allocateB8ne180100Emm, symObjAddr: 0x4C00, symBinAddr: 0x1000060E0, symSize: 0x20 }
  - { offset: 0x9BD0, size: 0x8, addend: 0x0, symName: __ZNSt3__121__libcpp_operator_newB8ne180100IJmEEEPvDpT_, symObjAddr: 0x4C20, symBinAddr: 0x100006100, symSize: 0x20 }
  - { offset: 0x9C09, size: 0x8, addend: 0x0, symName: __ZNSt3__130__uninitialized_allocator_copyB8ne180100INS_9allocatorI5TokenEEPS2_S4_S4_EET2_RT_T0_T1_S5_, symObjAddr: 0x4CD0, symBinAddr: 0x1000061B0, symSize: 0x80 }
  - { offset: 0x9CA6, size: 0x8, addend: 0x0, symName: __ZNSt3__114__unwrap_rangeB8ne180100IP5TokenS2_EENS_4pairIT0_S4_EET_S6_, symObjAddr: 0x4DB0, symBinAddr: 0x100006290, symSize: 0x50 }
  - { offset: 0x9CF2, size: 0x8, addend: 0x0, symName: __ZNSt3__135__uninitialized_allocator_copy_implB8ne180100INS_9allocatorI5TokenEEPS2_S4_S4_EET2_RT_T0_T1_S5_, symObjAddr: 0x4E00, symBinAddr: 0x1000062E0, symSize: 0x100 }
  - { offset: 0x9D90, size: 0x8, addend: 0x0, symName: __ZNSt3__113__unwrap_iterB8ne180100IP5TokenNS_18__unwrap_iter_implIS2_Lb1EEELi0EEEDTclsrT0_8__unwrapclsr3stdE7declvalIT_EEEES6_, symObjAddr: 0x4F00, symBinAddr: 0x1000063E0, symSize: 0x20 }
  - { offset: 0x9DD4, size: 0x8, addend: 0x0, symName: __ZNSt3__113__rewrap_iterB8ne180100IP5TokenS2_NS_18__unwrap_iter_implIS2_Lb1EEEEET_S5_T0_, symObjAddr: 0x4F20, symBinAddr: 0x100006400, symSize: 0x40 }
  - { offset: 0x9E29, size: 0x8, addend: 0x0, symName: __ZNSt3__19make_pairB8ne180100IP5TokenS2_EENS_4pairINS_18__unwrap_ref_decayIT_E4typeENS4_IT0_E4typeEEEOS5_OS8_, symObjAddr: 0x4F60, symBinAddr: 0x100006440, symSize: 0x30 }
  - { offset: 0x9F4C, size: 0x8, addend: 0x0, symName: __ZNSt3__122__make_exception_guardB8ne180100INS_29_AllocatorDestroyRangeReverseINS_9allocatorI5TokenEEPS3_EEEENS_28__exception_guard_exceptionsIT_EES8_, symObjAddr: 0x4FF0, symBinAddr: 0x1000064D0, symSize: 0x60 }
  - { offset: 0x9F81, size: 0x8, addend: 0x0, symName: __ZNSt3__112__to_addressB8ne180100I5TokenEEPT_S3_, symObjAddr: 0x50C0, symBinAddr: 0x1000065A0, symSize: 0x10 }
  - { offset: 0x9FB6, size: 0x8, addend: 0x0, symName: __ZNSt3__119__allocator_destroyB8ne180100INS_9allocatorI5TokenEENS_16reverse_iteratorIPS2_EES6_EEvRT_T0_T1_, symObjAddr: 0x5320, symBinAddr: 0x100006800, symSize: 0x70 }
  - { offset: 0xA019, size: 0x8, addend: 0x0, symName: __ZNSt3__1neB8ne180100IP5TokenS2_EEbRKNS_16reverse_iteratorIT_EERKNS3_IT0_EE, symObjAddr: 0x53C0, symBinAddr: 0x1000068A0, symSize: 0x40 }
  - { offset: 0xA065, size: 0x8, addend: 0x0, symName: __ZNSt3__112__to_addressB8ne180100INS_16reverse_iteratorIP5TokenEEvEEu7__decayIDTclsr19__to_address_helperIT_EE6__callclsr3stdE7declvalIRKS5_EEEEES7_, symObjAddr: 0x5430, symBinAddr: 0x100006910, symSize: 0x20 }
  - { offset: 0xA117, size: 0x8, addend: 0x0, symName: __ZNSt3__119__libcpp_deallocateB8ne180100EPvmm, symObjAddr: 0x5840, symBinAddr: 0x100006D20, symSize: 0x30 }
  - { offset: 0xA15F, size: 0x8, addend: 0x0, symName: __ZNSt3__127__do_deallocate_handle_sizeB8ne180100IJEEEvPvmDpT_, symObjAddr: 0x5870, symBinAddr: 0x100006D50, symSize: 0x20 }
  - { offset: 0xA19D, size: 0x8, addend: 0x0, symName: __ZNSt3__124__libcpp_operator_deleteB8ne180100IJPvEEEvDpT_, symObjAddr: 0x5890, symBinAddr: 0x100006D70, symSize: 0x20 }
  - { offset: 0xA205, size: 0x8, addend: 0x0, symName: __ZNSt3__1neB8ne180100ERKNS_16__deque_iteratorI5TokenPS1_RS1_PS2_lLl56EEES7_, symObjAddr: 0x6430, symBinAddr: 0x100007910, symSize: 0x30 }
  - { offset: 0xA242, size: 0x8, addend: 0x0, symName: __ZNSt3__1eqB8ne180100ERKNS_16__deque_iteratorI5TokenPS1_RS1_PS2_lLl56EEES7_, symObjAddr: 0x6670, symBinAddr: 0x100007B50, symSize: 0x30 }
  - { offset: 0xA27F, size: 0x8, addend: 0x0, symName: __ZNSt3__112__to_addressB8ne180100IP5TokenEEPT_S4_, symObjAddr: 0x6930, symBinAddr: 0x100007E10, symSize: 0x10 }
  - { offset: 0xA2B4, size: 0x8, addend: 0x0, symName: __ZNSt3__116__pad_and_outputB8ne180100IcNS_11char_traitsIcEEEENS_19ostreambuf_iteratorIT_T0_EES6_PKS4_S8_S8_RNS_8ios_baseES4_, symObjAddr: 0x6C90, symBinAddr: 0x100008170, symSize: 0x220 }
  - { offset: 0xA384, size: 0x8, addend: 0x0, symName: __ZNSt3__112__to_addressB8ne180100IKcEEPT_S3_, symObjAddr: 0x71B0, symBinAddr: 0x100008690, symSize: 0x10 }
  - { offset: 0xA3EC, size: 0x8, addend: 0x0, symName: __ZNSt3__19use_facetB8ne180100INS_5ctypeIcEEEERKT_RKNS_6localeE, symObjAddr: 0x73B0, symBinAddr: 0x100008890, symSize: 0x30 }
  - { offset: 0xA8B9, size: 0x8, addend: 0x0, symName: __ZNSt3__118__constexpr_strlenB8ne180100EPKc, symObjAddr: 0x7440, symBinAddr: 0x100008920, symSize: 0x20 }
  - { offset: 0xA8E5, size: 0x8, addend: 0x0, symName: __ZNSt3__112__to_addressB8ne180100IcEEPT_S2_, symObjAddr: 0x76A0, symBinAddr: 0x100008B80, symSize: 0x10 }
  - { offset: 0xAB1C, size: 0x8, addend: 0x0, symName: __ZNSt3__14copyB8ne180100IPKcPcEET0_T_S5_S4_, symObjAddr: 0x7DA0, symBinAddr: 0x100009280, symSize: 0x40 }
  - { offset: 0xAB76, size: 0x8, addend: 0x0, symName: __ZNSt3__16__copyB8ne180100INS_17_ClassicAlgPolicyEPKcS3_PcEENS_4pairIT0_T2_EES6_T1_S7_, symObjAddr: 0x7DE0, symBinAddr: 0x1000092C0, symSize: 0x40 }
  - { offset: 0xABE2, size: 0x8, addend: 0x0, symName: __ZNSt3__123__dispatch_copy_or_moveB8ne180100INS_17_ClassicAlgPolicyENS_11__copy_loopIS1_EENS_14__copy_trivialEPKcS6_PcEENS_4pairIT2_T4_EES9_T3_SA_, symObjAddr: 0x7E20, symBinAddr: 0x100009300, symSize: 0x40 }
  - { offset: 0xAC60, size: 0x8, addend: 0x0, symName: __ZNSt3__121__unwrap_and_dispatchB8ne180100INS_10__overloadINS_11__copy_loopINS_17_ClassicAlgPolicyEEENS_14__copy_trivialEEEPKcS8_PcLi0EEENS_4pairIT0_T2_EESB_T1_SC_, symObjAddr: 0x7E60, symBinAddr: 0x100009340, symSize: 0xB0 }
  - { offset: 0xACEF, size: 0x8, addend: 0x0, symName: __ZNSt3__114__unwrap_rangeB8ne180100IPKcS2_EENS_4pairIT0_S4_EET_S6_, symObjAddr: 0x7F10, symBinAddr: 0x1000093F0, symSize: 0x50 }
  - { offset: 0xAE84, size: 0x8, addend: 0x0, symName: __ZNSt3__113__unwrap_iterB8ne180100IPcNS_18__unwrap_iter_implIS1_Lb1EEELi0EEEDTclsrT0_8__unwrapclsr3stdE7declvalIT_EEEES5_, symObjAddr: 0x7FA0, symBinAddr: 0x100009480, symSize: 0x20 }
  - { offset: 0xAEC8, size: 0x8, addend: 0x0, symName: __ZNSt3__19make_pairB8ne180100IPKcPcEENS_4pairINS_18__unwrap_ref_decayIT_E4typeENS5_IT0_E4typeEEEOS6_OS9_, symObjAddr: 0x7FC0, symBinAddr: 0x1000094A0, symSize: 0x30 }
  - { offset: 0xAF17, size: 0x8, addend: 0x0, symName: __ZNSt3__114__rewrap_rangeB8ne180100IPKcS2_EET_S3_T0_, symObjAddr: 0x7FF0, symBinAddr: 0x1000094D0, symSize: 0x30 }
  - { offset: 0xAF63, size: 0x8, addend: 0x0, symName: __ZNSt3__113__rewrap_iterB8ne180100IPcS1_NS_18__unwrap_iter_implIS1_Lb1EEEEET_S4_T0_, symObjAddr: 0x8020, symBinAddr: 0x100009500, symSize: 0x40 }
  - { offset: 0xAFB8, size: 0x8, addend: 0x0, symName: __ZNSt3__19make_pairB8ne180100IPKcS2_EENS_4pairINS_18__unwrap_ref_decayIT_E4typeENS4_IT0_E4typeEEEOS5_OS8_, symObjAddr: 0x8060, symBinAddr: 0x100009540, symSize: 0x30 }
  - { offset: 0xB007, size: 0x8, addend: 0x0, symName: __ZNSt3__113__unwrap_iterB8ne180100IPKcNS_18__unwrap_iter_implIS2_Lb1EEELi0EEEDTclsrT0_8__unwrapclsr3stdE7declvalIT_EEEES6_, symObjAddr: 0x8090, symBinAddr: 0x100009570, symSize: 0x20 }
  - { offset: 0xB172, size: 0x8, addend: 0x0, symName: __ZNSt3__119__copy_trivial_implB8ne180100IKccEENS_4pairIPT_PT0_EES4_S4_S6_, symObjAddr: 0x8130, symBinAddr: 0x100009610, symSize: 0x70 }
  - { offset: 0xB1DA, size: 0x8, addend: 0x0, symName: __ZNSt3__119__constexpr_memmoveB8ne180100IcKcLi0EEEPT_S3_PT0_NS_15__element_countE, symObjAddr: 0x81A0, symBinAddr: 0x100009680, symSize: 0x50 }
  - { offset: 0xB248, size: 0x8, addend: 0x0, symName: __ZNSt3__19make_pairB8ne180100IRPKcPcEENS_4pairINS_18__unwrap_ref_decayIT_E4typeENS6_IT0_E4typeEEEOS7_OSA_, symObjAddr: 0x81F0, symBinAddr: 0x1000096D0, symSize: 0x30 }
  - { offset: 0xB2EA, size: 0x8, addend: 0x0, symName: __ZNSt3__113__rewrap_iterB8ne180100IPKcS2_NS_18__unwrap_iter_implIS2_Lb1EEEEET_S5_T0_, symObjAddr: 0x8300, symBinAddr: 0x1000097E0, symSize: 0x40 }
  - { offset: 0xB33F, size: 0x8, addend: 0x0, symName: __ZNSt3__16fill_nB8ne180100IPcmcEET_S2_T0_RKT1_, symObjAddr: 0x83C0, symBinAddr: 0x1000098A0, symSize: 0x40 }
  - { offset: 0xB3A2, size: 0x8, addend: 0x0, symName: __ZNSt3__18__fill_nB8ne180100IPcmcEET_S2_T0_RKT1_, symObjAddr: 0x8400, symBinAddr: 0x1000098E0, symSize: 0x50 }
  - { offset: 0xB405, size: 0x8, addend: 0x0, symName: __ZNSt3__121__convert_to_integralB8ne180100Em, symObjAddr: 0x8450, symBinAddr: 0x100009930, symSize: 0x10 }
  - { offset: 0xB431, size: 0x8, addend: 0x0, symName: __ZNSt3__13maxB8ne180100ImEERKT_S3_S3_, symObjAddr: 0x8A00, symBinAddr: 0x100009EE0, symSize: 0x30 }
  - { offset: 0xB474, size: 0x8, addend: 0x0, symName: __ZNSt3__13maxB8ne180100ImNS_6__lessIvvEEEERKT_S5_S5_T0_, symObjAddr: 0x8A30, symBinAddr: 0x100009F10, symSize: 0x50 }
  - { offset: 0xB4CE, size: 0x8, addend: 0x0, symName: __ZNSt3__142__uninitialized_allocator_move_if_noexceptB8ne180100INS_9allocatorI5TokenEENS_16reverse_iteratorIPS2_EES6_S6_EET2_RT_T0_T1_S7_, symObjAddr: 0x8C70, symBinAddr: 0x10000A150, symSize: 0x170 }
  - { offset: 0xB56D, size: 0x8, addend: 0x0, symName: __ZNSt3__14swapB8ne180100IP5TokenEENS_9enable_ifIXaasr21is_move_constructibleIT_EE5valuesr18is_move_assignableIS4_EE5valueEvE4typeERS4_S7_, symObjAddr: 0x8DE0, symBinAddr: 0x10000A2C0, symSize: 0x40 }
  - { offset: 0xB5BE, size: 0x8, addend: 0x0, symName: __ZNSt3__122__make_exception_guardB8ne180100INS_29_AllocatorDestroyRangeReverseINS_9allocatorI5TokenEENS_16reverse_iteratorIPS3_EEEEEENS_28__exception_guard_exceptionsIT_EESA_, symObjAddr: 0x8E20, symBinAddr: 0x10000A300, symSize: 0x60 }
  - { offset: 0xB5F3, size: 0x8, addend: 0x0, symName: __ZNSt3__119__allocator_destroyB8ne180100INS_9allocatorI5TokenEENS_16reverse_iteratorINS4_IPS2_EEEES7_EEvRT_T0_T1_, symObjAddr: 0x9310, symBinAddr: 0x10000A7F0, symSize: 0x70 }
  - { offset: 0xB656, size: 0x8, addend: 0x0, symName: __ZNSt3__1neB8ne180100INS_16reverse_iteratorIP5TokenEES4_EEbRKNS1_IT_EERKNS1_IT0_EE, symObjAddr: 0x93B0, symBinAddr: 0x10000A890, symSize: 0x50 }
  - { offset: 0xB6A2, size: 0x8, addend: 0x0, symName: __ZNSt3__112__to_addressB8ne180100INS_16reverse_iteratorINS1_IP5TokenEEEEvEEu7__decayIDTclsr19__to_address_helperIT_EE6__callclsr3stdE7declvalIRKS6_EEEEES8_, symObjAddr: 0x9400, symBinAddr: 0x10000A8E0, symSize: 0x20 }
  - { offset: 0xBA9E, size: 0x8, addend: 0x0, symName: __ZNSt3__14swapB8ne180100IPP5TokenEENS_9enable_ifIXaasr21is_move_constructibleIT_EE5valuesr18is_move_assignableIS5_EE5valueEvE4typeERS5_S8_, symObjAddr: 0xAD10, symBinAddr: 0x10000C1F0, symSize: 0x40 }
  - { offset: 0xBAEF, size: 0x8, addend: 0x0, symName: __ZNSt3__14moveB8ne180100IPP5TokenS3_EET0_T_S5_S4_, symObjAddr: 0xADD0, symBinAddr: 0x10000C2B0, symSize: 0x40 }
  - { offset: 0xBB49, size: 0x8, addend: 0x0, symName: __ZNSt3__16__moveB8ne180100INS_17_ClassicAlgPolicyEPP5TokenS4_S4_EENS_4pairIT0_T2_EES6_T1_S7_, symObjAddr: 0xAED0, symBinAddr: 0x10000C3B0, symSize: 0x40 }
  - { offset: 0xBBB5, size: 0x8, addend: 0x0, symName: __ZNSt3__123__dispatch_copy_or_moveB8ne180100INS_17_ClassicAlgPolicyENS_11__move_loopIS1_EENS_14__move_trivialEPP5TokenS7_S7_EENS_4pairIT2_T4_EES9_T3_SA_, symObjAddr: 0xAF10, symBinAddr: 0x10000C3F0, symSize: 0x40 }
  - { offset: 0xBC33, size: 0x8, addend: 0x0, symName: __ZNSt3__121__unwrap_and_dispatchB8ne180100INS_10__overloadINS_11__move_loopINS_17_ClassicAlgPolicyEEENS_14__move_trivialEEEPP5TokenS9_S9_Li0EEENS_4pairIT0_T2_EESB_T1_SC_, symObjAddr: 0xAF50, symBinAddr: 0x10000C430, symSize: 0xB0 }
  - { offset: 0xBCC2, size: 0x8, addend: 0x0, symName: __ZNSt3__114__unwrap_rangeB8ne180100IPP5TokenS3_EENS_4pairIT0_S5_EET_S7_, symObjAddr: 0xB000, symBinAddr: 0x10000C4E0, symSize: 0x50 }
  - { offset: 0xBE86, size: 0x8, addend: 0x0, symName: __ZNSt3__113__unwrap_iterB8ne180100IPP5TokenNS_18__unwrap_iter_implIS3_Lb1EEELi0EEEDTclsrT0_8__unwrapclsr3stdE7declvalIT_EEEES7_, symObjAddr: 0xB090, symBinAddr: 0x10000C570, symSize: 0x20 }
  - { offset: 0xBECA, size: 0x8, addend: 0x0, symName: __ZNSt3__19make_pairB8ne180100IPP5TokenS3_EENS_4pairINS_18__unwrap_ref_decayIT_E4typeENS5_IT0_E4typeEEEOS6_OS9_, symObjAddr: 0xB0B0, symBinAddr: 0x10000C590, symSize: 0x30 }
  - { offset: 0xBF19, size: 0x8, addend: 0x0, symName: __ZNSt3__114__rewrap_rangeB8ne180100IPP5TokenS3_EET_S4_T0_, symObjAddr: 0xB0E0, symBinAddr: 0x10000C5C0, symSize: 0x30 }
  - { offset: 0xBF65, size: 0x8, addend: 0x0, symName: __ZNSt3__113__rewrap_iterB8ne180100IPP5TokenS3_NS_18__unwrap_iter_implIS3_Lb1EEEEET_S6_T0_, symObjAddr: 0xB110, symBinAddr: 0x10000C5F0, symSize: 0x40 }
  - { offset: 0xBFBA, size: 0x8, addend: 0x0, symName: __ZNSt3__119__copy_trivial_implB8ne180100IP5TokenS2_EENS_4pairIPT_PT0_EES5_S5_S7_, symObjAddr: 0xB150, symBinAddr: 0x10000C630, symSize: 0x70 }
  - { offset: 0xC022, size: 0x8, addend: 0x0, symName: __ZNSt3__119__constexpr_memmoveB8ne180100IP5TokenS2_Li0EEEPT_S4_PT0_NS_15__element_countE, symObjAddr: 0xB1C0, symBinAddr: 0x10000C6A0, symSize: 0x50 }
  - { offset: 0xC090, size: 0x8, addend: 0x0, symName: __ZNSt3__19make_pairB8ne180100IRPP5TokenS3_EENS_4pairINS_18__unwrap_ref_decayIT_E4typeENS6_IT0_E4typeEEEOS7_OSA_, symObjAddr: 0xB210, symBinAddr: 0x10000C6F0, symSize: 0x30 }
  - { offset: 0xC132, size: 0x8, addend: 0x0, symName: __ZNSt3__18distanceB8ne180100INS_13move_iteratorIPP5TokenEEEENS_15iterator_traitsIT_E15difference_typeES7_S7_, symObjAddr: 0xB450, symBinAddr: 0x10000C930, symSize: 0x40 }
  - { offset: 0xC175, size: 0x8, addend: 0x0, symName: __ZNSt3__110__distanceB8ne180100INS_13move_iteratorIPP5TokenEEEENS_15iterator_traitsIT_E15difference_typeES7_S7_NS_26random_access_iterator_tagE, symObjAddr: 0xB630, symBinAddr: 0x10000CB10, symSize: 0x30 }
  - { offset: 0xC1C2, size: 0x8, addend: 0x0, symName: __ZNSt3__1miB8ne180100IPP5TokenS3_EEDTmicldtfp_4baseEcldtfp0_4baseEERKNS_13move_iteratorIT_EERKNS5_IT0_EE, symObjAddr: 0xB660, symBinAddr: 0x10000CB40, symSize: 0x40 }
  - { offset: 0xC211, size: 0x8, addend: 0x0, symName: __ZNSt3__113move_backwardB8ne180100IPP5TokenS3_EET0_T_S5_S4_, symObjAddr: 0xB700, symBinAddr: 0x10000CBE0, symSize: 0x40 }
  - { offset: 0xC26B, size: 0x8, addend: 0x0, symName: __ZNSt3__115__move_backwardB8ne180100INS_17_ClassicAlgPolicyEPP5TokenS4_S4_EENS_4pairIT0_T2_EES6_T1_S7_, symObjAddr: 0xB740, symBinAddr: 0x10000CC20, symSize: 0x40 }
  - { offset: 0xC2D7, size: 0x8, addend: 0x0, symName: __ZNSt3__123__dispatch_copy_or_moveB8ne180100INS_17_ClassicAlgPolicyENS_20__move_backward_loopIS1_EENS_23__move_backward_trivialEPP5TokenS7_S7_EENS_4pairIT2_T4_EES9_T3_SA_, symObjAddr: 0xB780, symBinAddr: 0x10000CC60, symSize: 0x40 }
  - { offset: 0xC355, size: 0x8, addend: 0x0, symName: __ZNSt3__121__unwrap_and_dispatchB8ne180100INS_10__overloadINS_20__move_backward_loopINS_17_ClassicAlgPolicyEEENS_23__move_backward_trivialEEEPP5TokenS9_S9_Li0EEENS_4pairIT0_T2_EESB_T1_SC_, symObjAddr: 0xB7C0, symBinAddr: 0x10000CCA0, symSize: 0xB0 }
  - { offset: 0xC42A, size: 0x8, addend: 0x0, symName: __ZNSt3__128__copy_backward_trivial_implB8ne180100IP5TokenS2_EENS_4pairIPT_PT0_EES5_S5_S7_, symObjAddr: 0xB8B0, symBinAddr: 0x10000CD90, symSize: 0x70 }
  - { offset: 0xC492, size: 0x8, addend: 0x0, symName: __ZNSt3__19make_pairB8ne180100IRPP5TokenS4_EENS_4pairINS_18__unwrap_ref_decayIT_E4typeENS6_IT0_E4typeEEEOS7_OSA_, symObjAddr: 0xB920, symBinAddr: 0x10000CE00, symSize: 0x30 }
  - { offset: 0xC4E1, size: 0x8, addend: 0x0, symName: __ZNSt3__119__allocate_at_leastB8ne180100INS_9allocatorIP5TokenEEEENS_19__allocation_resultINS_16allocator_traitsIT_E7pointerEEERS7_m, symObjAddr: 0xBAB0, symBinAddr: 0x10000CF90, symSize: 0x40 }
  - { offset: 0xD4AF, size: 0x8, addend: 0x0, symName: __ZSt28__throw_bad_array_new_lengthB8ne180100v, symObjAddr: 0x4BC0, symBinAddr: 0x1000060A0, symSize: 0x40 }
  - { offset: 0xE488, size: 0x8, addend: 0x0, symName: __ZNSt3__16vectorI5TokenNS_9allocatorIS1_EEE26__swap_out_circular_bufferERNS_14__split_bufferIS1_RS3_EE, symObjAddr: 0x88C0, symBinAddr: 0x100009DA0, symSize: 0x120 }
  - { offset: 0xE5BB, size: 0x8, addend: 0x0, symName: _main, symObjAddr: 0x0, symBinAddr: 0x1000014E0, symSize: 0x650 }
  - { offset: 0xE67B, size: 0x8, addend: 0x0, symName: __ZNSt3__113basic_ostreamIcNS_11char_traitsIcEEElsB8ne180100EPFRS3_S4_E, symObjAddr: 0x690, symBinAddr: 0x100001B70, symSize: 0x20 }
  - { offset: 0xE9E4, size: 0x8, addend: 0x0, symName: __ZNSt3__114basic_ifstreamIcNS_11char_traitsIcEEEC1Ev, symObjAddr: 0x700, symBinAddr: 0x100001BE0, symSize: 0xE0 }
  - { offset: 0xEA0F, size: 0x8, addend: 0x0, symName: __ZNKSt3__114basic_ifstreamIcNS_11char_traitsIcEEE7is_openEv, symObjAddr: 0x7E0, symBinAddr: 0x100001CC0, symSize: 0x30 }
  - { offset: 0xEA36, size: 0x8, addend: 0x0, symName: __ZNSt3__114basic_ifstreamIcNS_11char_traitsIcEEE5closeEv, symObjAddr: 0x810, symBinAddr: 0x100001CF0, symSize: 0x50 }
  - { offset: 0xEA63, size: 0x8, addend: 0x0, symName: __ZNSt3__112basic_stringIcNS_11char_traitsIcEENS_9allocatorIcEEEC1B8ne180100ILi0EEEPKc, symObjAddr: 0x860, symBinAddr: 0x100001D40, symSize: 0x30 }
  - { offset: 0xEAA1, size: 0x8, addend: 0x0, symName: __ZNSt3__112basic_stringIcNS_11char_traitsIcEENS_9allocatorIcEEE8pop_backB8ne180100Ev, symObjAddr: 0x890, symBinAddr: 0x100001D70, symSize: 0x30 }
  - { offset: 0xEAC8, size: 0x8, addend: 0x0, symName: __Z13commentParserRNSt3__114basic_ifstreamIcNS_11char_traitsIcEEEENS_12basic_stringIcS2_NS_9allocatorIcEEEE, symObjAddr: 0x8C0, symBinAddr: 0x100001DA0, symSize: 0x560 }
  - { offset: 0xEB6C, size: 0x8, addend: 0x0, symName: __ZNSt3__114basic_ofstreamIcNS_11char_traitsIcEEEC1ERKNS_12basic_stringIcS2_NS_9allocatorIcEEEEj, symObjAddr: 0xF10, symBinAddr: 0x1000023F0, symSize: 0x160 }
  - { offset: 0xEBB5, size: 0x8, addend: 0x0, symName: __ZNSt3__114basic_ofstreamIcNS_11char_traitsIcEEE5closeEv, symObjAddr: 0x10C0, symBinAddr: 0x1000025A0, symSize: 0x50 }
  - { offset: 0xEBDC, size: 0x8, addend: 0x0, symName: __Z16buildTokenVectorR9Tokenizer, symObjAddr: 0x1110, symBinAddr: 0x1000025F0, symSize: 0x200 }
  - { offset: 0xF073, size: 0x8, addend: 0x0, symName: __ZN6ParserC1ERNSt3__16vectorI5TokenNS0_9allocatorIS2_EEEE, symObjAddr: 0x1310, symBinAddr: 0x1000027F0, symSize: 0x30 }
  - { offset: 0xF0AB, size: 0x8, addend: 0x0, symName: __ZN6Parser9printTreeEv, symObjAddr: 0x1340, symBinAddr: 0x100002820, symSize: 0x20 }
  - { offset: 0xF0D1, size: 0x8, addend: 0x0, symName: __ZN6ParserD1Ev, symObjAddr: 0x1360, symBinAddr: 0x100002840, symSize: 0x20 }
  - { offset: 0xF0FD, size: 0x8, addend: 0x0, symName: __ZNSt3__16vectorI5TokenNS_9allocatorIS1_EEED1B8ne180100Ev, symObjAddr: 0x1380, symBinAddr: 0x100002860, symSize: 0x20 }
  - { offset: 0xF1DE, size: 0x8, addend: 0x0, symName: __ZN9TokenizerD1Ev, symObjAddr: 0x13A0, symBinAddr: 0x100002880, symSize: 0x20 }
  - { offset: 0xF20F, size: 0x8, addend: 0x0, symName: __ZNSt3__114basic_ofstreamIcNS_11char_traitsIcEEED1Ev, symObjAddr: 0x13C0, symBinAddr: 0x1000028A0, symSize: 0x40 }
  - { offset: 0xF241, size: 0x8, addend: 0x0, symName: __ZNSt3__114basic_ifstreamIcNS_11char_traitsIcEEED1Ev, symObjAddr: 0x1400, symBinAddr: 0x1000028E0, symSize: 0x40 }
  - { offset: 0xF26E, size: 0x8, addend: 0x0, symName: __ZNSt3__16vectorI5TokenNS_9allocatorIS1_EEEC1B8ne180100Ev, symObjAddr: 0x1440, symBinAddr: 0x100002920, symSize: 0x20 }
  - { offset: 0xF297, size: 0x8, addend: 0x0, symName: __ZNSt3__16vectorI5TokenNS_9allocatorIS1_EEE9push_backB8ne180100ERKS1_, symObjAddr: 0x1460, symBinAddr: 0x100002940, symSize: 0x80 }
  - { offset: 0xF2E2, size: 0x8, addend: 0x0, symName: __ZN5TokenaSEOS_, symObjAddr: 0x14E0, symBinAddr: 0x1000029C0, symSize: 0x60 }
  - { offset: 0xF313, size: 0x8, addend: 0x0, symName: __ZN5TokenD1Ev, symObjAddr: 0x1540, symBinAddr: 0x100002A20, symSize: 0x20 }
  - { offset: 0xF33E, size: 0x8, addend: 0x0, symName: __Z13yardAlgorithmRNSt3__16vectorI5TokenNS_9allocatorIS1_EEEE, symObjAddr: 0x1560, symBinAddr: 0x100002A40, symSize: 0x1CB0 }
  - { offset: 0xF3E9, size: 0x8, addend: 0x0, symName: __ZNSt3__15stackI5TokenNS_5dequeIS1_NS_9allocatorIS1_EEEEEC1B8ne180100Ev, symObjAddr: 0x3210, symBinAddr: 0x1000046F0, symSize: 0x20 }
  - { offset: 0xF413, size: 0x8, addend: 0x0, symName: __ZNKSt3__16vectorI5TokenNS_9allocatorIS1_EEE4sizeB8ne180100Ev, symObjAddr: 0x3230, symBinAddr: 0x100004710, symSize: 0x30 }
  - { offset: 0xF438, size: 0x8, addend: 0x0, symName: __ZNSt3__16vectorI5TokenNS_9allocatorIS1_EEEixB8ne180100Em, symObjAddr: 0x3260, symBinAddr: 0x100004740, symSize: 0x20 }
  - { offset: 0xF46F, size: 0x8, addend: 0x0, symName: __ZNSt3__15stackI5TokenNS_5dequeIS1_NS_9allocatorIS1_EEEEE4pushB8ne180100ERKS1_, symObjAddr: 0x3280, symBinAddr: 0x100004760, symSize: 0x30 }
  - { offset: 0xF4A3, size: 0x8, addend: 0x0, symName: __ZNSt3__15stackI5TokenNS_5dequeIS1_NS_9allocatorIS1_EEEEE3topB8ne180100Ev, symObjAddr: 0x32B0, symBinAddr: 0x100004790, symSize: 0x20 }
  - { offset: 0xF4C9, size: 0x8, addend: 0x0, symName: __ZNSt3__15stackI5TokenNS_5dequeIS1_NS_9allocatorIS1_EEEEE3popB8ne180100Ev, symObjAddr: 0x32D0, symBinAddr: 0x1000047B0, symSize: 0x20 }
  - { offset: 0xF4EF, size: 0x8, addend: 0x0, symName: __ZNKSt3__15stackI5TokenNS_5dequeIS1_NS_9allocatorIS1_EEEEE5emptyB8ne180100Ev, symObjAddr: 0x32F0, symBinAddr: 0x1000047D0, symSize: 0x20 }
  - { offset: 0xF515, size: 0x8, addend: 0x0, symName: __ZNSt3__15stackI5TokenNS_5dequeIS1_NS_9allocatorIS1_EEEEED1Ev, symObjAddr: 0x3310, symBinAddr: 0x1000047F0, symSize: 0x20 }
  - { offset: 0xF540, size: 0x8, addend: 0x0, symName: __Z9testYard1v, symObjAddr: 0x3330, symBinAddr: 0x100004810, symSize: 0xC20 }
  - { offset: 0xF6DA, size: 0x8, addend: 0x0, symName: __Z11parseTokensR9Tokenizer, symObjAddr: 0x3F50, symBinAddr: 0x100005430, symSize: 0x230 }
  - { offset: 0xF729, size: 0x8, addend: 0x0, symName: __ZNSt3__112basic_stringIcNS_11char_traitsIcEENS_9allocatorIcEEEpLB8ne180100EPKc, symObjAddr: 0x4180, symBinAddr: 0x100005660, symSize: 0x30 }
  - { offset: 0xF75E, size: 0x8, addend: 0x0, symName: __ZNSt3__112basic_stringIcNS_11char_traitsIcEENS_9allocatorIcEEEpLB8ne180100ERKS5_, symObjAddr: 0x41B0, symBinAddr: 0x100005690, symSize: 0x30 }
  - { offset: 0xF793, size: 0x8, addend: 0x0, symName: __ZNKSt3__19basic_iosIcNS_11char_traitsIcEEE3eofB8ne180100Ev, symObjAddr: 0x41E0, symBinAddr: 0x1000056C0, symSize: 0x20 }
  - { offset: 0xF7B9, size: 0x8, addend: 0x0, symName: __ZNSt3__113basic_istreamIcNS_11char_traitsIcEEE3getB8ne180100ERc, symObjAddr: 0x4230, symBinAddr: 0x100005710, symSize: 0x60 }
  - { offset: 0xF7FD, size: 0x8, addend: 0x0, symName: __ZNSt3__112basic_stringIcNS_11char_traitsIcEENS_9allocatorIcEEEpLB8ne180100Ec, symObjAddr: 0x4290, symBinAddr: 0x100005770, symSize: 0x30 }
  - { offset: 0xF832, size: 0x8, addend: 0x0, symName: __ZN6ParserC2ERNSt3__16vectorI5TokenNS0_9allocatorIS2_EEEE, symObjAddr: 0x42C0, symBinAddr: 0x1000057A0, symSize: 0xB0 }
  - { offset: 0xF86A, size: 0x8, addend: 0x0, symName: __ZNSt3__16vectorI5TokenNS_9allocatorIS1_EEEC1ERKS4_, symObjAddr: 0x4370, symBinAddr: 0x100005850, symSize: 0x30 }
  - { offset: 0xF8A5, size: 0x8, addend: 0x0, symName: __ZN3CSTC1Ev, symObjAddr: 0x43A0, symBinAddr: 0x100005880, symSize: 0x20 }
  - { offset: 0xF8CF, size: 0x8, addend: 0x0, symName: __ZNSt3__16vectorI5TokenNS_9allocatorIS1_EEEC2ERKS4_, symObjAddr: 0x43C0, symBinAddr: 0x1000058A0, symSize: 0xA0 }
  - { offset: 0xF914, size: 0x8, addend: 0x0, symName: __ZNSt3__116allocator_traitsINS_9allocatorI5TokenEEE37select_on_container_copy_constructionB8ne180100IS3_vvEES3_RKS3_, symObjAddr: 0x4460, symBinAddr: 0x100005940, symSize: 0x10 }
  - { offset: 0xF943, size: 0x8, addend: 0x0, symName: __ZNKSt3__16vectorI5TokenNS_9allocatorIS1_EEE7__allocB8ne180100Ev, symObjAddr: 0x4470, symBinAddr: 0x100005950, symSize: 0x20 }
  - { offset: 0xF979, size: 0x8, addend: 0x0, symName: __ZNSt3__117__compressed_pairIP5TokenNS_9allocatorIS1_EEEC1B8ne180100IDnS4_EEOT_OT0_, symObjAddr: 0x4490, symBinAddr: 0x100005970, symSize: 0x30 }
  - { offset: 0xF9D1, size: 0x8, addend: 0x0, symName: __ZNSt3__16vectorI5TokenNS_9allocatorIS1_EEE16__init_with_sizeB8ne180100IPS1_S6_EEvT_T0_m, symObjAddr: 0x44C0, symBinAddr: 0x1000059A0, symSize: 0xB0 }
  - { offset: 0xFA45, size: 0x8, addend: 0x0, symName: __ZNKSt3__117__compressed_pairIP5TokenNS_9allocatorIS1_EEE6secondB8ne180100Ev, symObjAddr: 0x4570, symBinAddr: 0x100005A50, symSize: 0x20 }
  - { offset: 0xFA6B, size: 0x8, addend: 0x0, symName: __ZNKSt3__122__compressed_pair_elemINS_9allocatorI5TokenEELi1ELb1EE5__getB8ne180100Ev, symObjAddr: 0x4590, symBinAddr: 0x100005A70, symSize: 0x10 }
  - { offset: 0xFA91, size: 0x8, addend: 0x0, symName: __ZNSt3__117__compressed_pairIP5TokenNS_9allocatorIS1_EEEC2B8ne180100IDnS4_EEOT_OT0_, symObjAddr: 0x45A0, symBinAddr: 0x100005A80, symSize: 0x40 }
  - { offset: 0xFAE9, size: 0x8, addend: 0x0, symName: __ZNSt3__122__compressed_pair_elemIP5TokenLi0ELb0EEC2B8ne180100IDnvEEOT_, symObjAddr: 0x45E0, symBinAddr: 0x100005AC0, symSize: 0x20 }
  - { offset: 0xFB2B, size: 0x8, addend: 0x0, symName: __ZNSt3__122__compressed_pair_elemINS_9allocatorI5TokenEELi1ELb1EEC2B8ne180100IS3_vEEOT_, symObjAddr: 0x4600, symBinAddr: 0x100005AE0, symSize: 0x10 }
  - { offset: 0xFB6D, size: 0x8, addend: 0x0, symName: __ZNSt3__16vectorI5TokenNS_9allocatorIS1_EEE16__destroy_vectorC1B8ne180100ERS4_, symObjAddr: 0x4650, symBinAddr: 0x100005B30, symSize: 0x30 }
  - { offset: 0xFBA6, size: 0x8, addend: 0x0, symName: __ZNSt3__16vectorI5TokenNS_9allocatorIS1_EEE11__vallocateB8ne180100Em, symObjAddr: 0x4680, symBinAddr: 0x100005B60, symSize: 0xA0 }
  - { offset: 0xFBE9, size: 0x8, addend: 0x0, symName: __ZNSt3__16vectorI5TokenNS_9allocatorIS1_EEE18__construct_at_endIPS1_S6_EEvT_T0_m, symObjAddr: 0x4720, symBinAddr: 0x100005C00, symSize: 0x90 }
  - { offset: 0xFC5F, size: 0x8, addend: 0x0, symName: __ZNSt3__128__exception_guard_exceptionsINS_6vectorI5TokenNS_9allocatorIS2_EEE16__destroy_vectorEE10__completeB8ne180100Ev, symObjAddr: 0x47B0, symBinAddr: 0x100005C90, symSize: 0x20 }
  - { offset: 0xFC85, size: 0x8, addend: 0x0, symName: __ZNSt3__128__exception_guard_exceptionsINS_6vectorI5TokenNS_9allocatorIS2_EEE16__destroy_vectorEED1B8ne180100Ev, symObjAddr: 0x47D0, symBinAddr: 0x100005CB0, symSize: 0x20 }
  - { offset: 0xFCAF, size: 0x8, addend: 0x0, symName: __ZNSt3__128__exception_guard_exceptionsINS_6vectorI5TokenNS_9allocatorIS2_EEE16__destroy_vectorEEC1B8ne180100ES6_, symObjAddr: 0x47F0, symBinAddr: 0x100005CD0, symSize: 0x30 }
  - { offset: 0xFCE7, size: 0x8, addend: 0x0, symName: __ZNSt3__128__exception_guard_exceptionsINS_6vectorI5TokenNS_9allocatorIS2_EEE16__destroy_vectorEEC2B8ne180100ES6_, symObjAddr: 0x4820, symBinAddr: 0x100005D00, symSize: 0x20 }
  - { offset: 0xFD1F, size: 0x8, addend: 0x0, symName: __ZNSt3__16vectorI5TokenNS_9allocatorIS1_EEE16__destroy_vectorC2B8ne180100ERS4_, symObjAddr: 0x4840, symBinAddr: 0x100005D20, symSize: 0x20 }
  - { offset: 0xFD57, size: 0x8, addend: 0x0, symName: __ZNKSt3__16vectorI5TokenNS_9allocatorIS1_EEE8max_sizeEv, symObjAddr: 0x4860, symBinAddr: 0x100005D40, symSize: 0x60 }
  - { offset: 0xFD7F, size: 0x8, addend: 0x0, symName: __ZNKSt3__16vectorI5TokenNS_9allocatorIS1_EEE20__throw_length_errorB8ne180100Ev, symObjAddr: 0x48C0, symBinAddr: 0x100005DA0, symSize: 0x20 }
  - { offset: 0xFDA5, size: 0x8, addend: 0x0, symName: __ZNSt3__16vectorI5TokenNS_9allocatorIS1_EEE7__allocB8ne180100Ev, symObjAddr: 0x4920, symBinAddr: 0x100005E00, symSize: 0x20 }
  - { offset: 0xFDCB, size: 0x8, addend: 0x0, symName: __ZNSt3__16vectorI5TokenNS_9allocatorIS1_EEE9__end_capB8ne180100Ev, symObjAddr: 0x4940, symBinAddr: 0x100005E20, symSize: 0x20 }
  - { offset: 0xFDF1, size: 0x8, addend: 0x0, symName: __ZNKSt3__16vectorI5TokenNS_9allocatorIS1_EEE14__annotate_newB8ne180100Em, symObjAddr: 0x4960, symBinAddr: 0x100005E40, symSize: 0x10 }
  - { offset: 0xFE26, size: 0x8, addend: 0x0, symName: __ZNSt3__116allocator_traitsINS_9allocatorI5TokenEEE8max_sizeB8ne180100IS3_vEEmRKS3_, symObjAddr: 0x49A0, symBinAddr: 0x100005E80, symSize: 0x20 }
  - { offset: 0xFE54, size: 0x8, addend: 0x0, symName: __ZNSt3__114numeric_limitsIlE3maxB8ne180100Ev, symObjAddr: 0x49C0, symBinAddr: 0x100005EA0, symSize: 0x10 }
  - { offset: 0xFE72, size: 0x8, addend: 0x0, symName: __ZNKSt3__16__lessIvvEclB8ne180100ImmEEbRKT_RKT0_, symObjAddr: 0x4A30, symBinAddr: 0x100005F10, symSize: 0x30 }
  - { offset: 0xFEC6, size: 0x8, addend: 0x0, symName: __ZNKSt3__19allocatorI5TokenE8max_sizeB8ne180100Ev, symObjAddr: 0x4A60, symBinAddr: 0x100005F40, symSize: 0x20 }
  - { offset: 0xFEEC, size: 0x8, addend: 0x0, symName: __ZNSt3__123__libcpp_numeric_limitsIlLb1EE3maxB8ne180100Ev, symObjAddr: 0x4A80, symBinAddr: 0x100005F60, symSize: 0x10 }
  - { offset: 0xFF00, size: 0x8, addend: 0x0, symName: __ZNSt12length_errorC1B8ne180100EPKc, symObjAddr: 0x4B00, symBinAddr: 0x100005FE0, symSize: 0x30 }
  - { offset: 0xFF38, size: 0x8, addend: 0x0, symName: __ZNSt12length_errorC2B8ne180100EPKc, symObjAddr: 0x4B30, symBinAddr: 0x100006010, symSize: 0x40 }
  - { offset: 0xFF70, size: 0x8, addend: 0x0, symName: __ZNSt3__19allocatorI5TokenE8allocateB8ne180100Em, symObjAddr: 0x4B70, symBinAddr: 0x100006050, symSize: 0x50 }
  - { offset: 0xFFA4, size: 0x8, addend: 0x0, symName: __ZNSt3__117__compressed_pairIP5TokenNS_9allocatorIS1_EEE6secondB8ne180100Ev, symObjAddr: 0x4C40, symBinAddr: 0x100006120, symSize: 0x20 }
  - { offset: 0xFFCA, size: 0x8, addend: 0x0, symName: __ZNSt3__122__compressed_pair_elemINS_9allocatorI5TokenEELi1ELb1EE5__getB8ne180100Ev, symObjAddr: 0x4C60, symBinAddr: 0x100006140, symSize: 0x10 }
  - { offset: 0xFFF0, size: 0x8, addend: 0x0, symName: __ZNSt3__117__compressed_pairIP5TokenNS_9allocatorIS1_EEE5firstB8ne180100Ev, symObjAddr: 0x4C70, symBinAddr: 0x100006150, symSize: 0x20 }
  - { offset: 0x10016, size: 0x8, addend: 0x0, symName: __ZNSt3__122__compressed_pair_elemIP5TokenLi0ELb0EE5__getB8ne180100Ev, symObjAddr: 0x4C90, symBinAddr: 0x100006170, symSize: 0x10 }
  - { offset: 0x10055, size: 0x8, addend: 0x0, symName: __ZNSt3__16vectorI5TokenNS_9allocatorIS1_EEE21_ConstructTransactionC1B8ne180100ERS4_m, symObjAddr: 0x4CA0, symBinAddr: 0x100006180, symSize: 0x30 }
  - { offset: 0x1009D, size: 0x8, addend: 0x0, symName: __ZNSt3__16vectorI5TokenNS_9allocatorIS1_EEE21_ConstructTransactionD1B8ne180100Ev, symObjAddr: 0x4D50, symBinAddr: 0x100006230, symSize: 0x20 }
  - { offset: 0x100C7, size: 0x8, addend: 0x0, symName: __ZNSt3__16vectorI5TokenNS_9allocatorIS1_EEE21_ConstructTransactionC2B8ne180100ERS4_m, symObjAddr: 0x4D70, symBinAddr: 0x100006250, symSize: 0x40 }
  - { offset: 0x10128, size: 0x8, addend: 0x0, symName: __ZNSt3__14pairIP5TokenS2_EC1B8ne180100IS2_S2_Li0EEEOT_OT0_, symObjAddr: 0x4F90, symBinAddr: 0x100006470, symSize: 0x30 }
  - { offset: 0x10186, size: 0x8, addend: 0x0, symName: __ZNSt3__14pairIP5TokenS2_EC2B8ne180100IS2_S2_Li0EEEOT_OT0_, symObjAddr: 0x4FC0, symBinAddr: 0x1000064A0, symSize: 0x30 }
  - { offset: 0x101E4, size: 0x8, addend: 0x0, symName: __ZNSt3__129_AllocatorDestroyRangeReverseINS_9allocatorI5TokenEEPS2_EC1B8ne180100ERS3_RS4_S7_, symObjAddr: 0x5050, symBinAddr: 0x100006530, symSize: 0x40 }
  - { offset: 0x1023B, size: 0x8, addend: 0x0, symName: __ZNSt3__116allocator_traitsINS_9allocatorI5TokenEEE9constructB8ne180100IS2_JRS2_EvEEvRS3_PT_DpOT0_, symObjAddr: 0x5090, symBinAddr: 0x100006570, symSize: 0x30 }
  - { offset: 0x10292, size: 0x8, addend: 0x0, symName: __ZNSt3__128__exception_guard_exceptionsINS_29_AllocatorDestroyRangeReverseINS_9allocatorI5TokenEEPS3_EEE10__completeB8ne180100Ev, symObjAddr: 0x50D0, symBinAddr: 0x1000065B0, symSize: 0x20 }
  - { offset: 0x102B8, size: 0x8, addend: 0x0, symName: __ZNSt3__128__exception_guard_exceptionsINS_29_AllocatorDestroyRangeReverseINS_9allocatorI5TokenEEPS3_EEED1B8ne180100Ev, symObjAddr: 0x50F0, symBinAddr: 0x1000065D0, symSize: 0x20 }
  - { offset: 0x102E2, size: 0x8, addend: 0x0, symName: __ZNSt3__128__exception_guard_exceptionsINS_29_AllocatorDestroyRangeReverseINS_9allocatorI5TokenEEPS3_EEEC1B8ne180100ES6_, symObjAddr: 0x5110, symBinAddr: 0x1000065F0, symSize: 0x40 }
  - { offset: 0x1031A, size: 0x8, addend: 0x0, symName: __ZNSt3__128__exception_guard_exceptionsINS_29_AllocatorDestroyRangeReverseINS_9allocatorI5TokenEEPS3_EEEC2B8ne180100ES6_, symObjAddr: 0x5150, symBinAddr: 0x100006630, symSize: 0x30 }
  - { offset: 0x10352, size: 0x8, addend: 0x0, symName: __ZNSt3__129_AllocatorDestroyRangeReverseINS_9allocatorI5TokenEEPS2_EC2B8ne180100ERS3_RS4_S7_, symObjAddr: 0x5180, symBinAddr: 0x100006660, symSize: 0x40 }
  - { offset: 0x103A9, size: 0x8, addend: 0x0, symName: __ZNSt3__19allocatorI5TokenE9constructB8ne180100IS1_JRS1_EEEvPT_DpOT0_, symObjAddr: 0x51C0, symBinAddr: 0x1000066A0, symSize: 0x30 }
  - { offset: 0x103FF, size: 0x8, addend: 0x0, symName: __ZN5TokenC1ERKS_, symObjAddr: 0x51F0, symBinAddr: 0x1000066D0, symSize: 0x30 }
  - { offset: 0x10434, size: 0x8, addend: 0x0, symName: __ZN5TokenC2ERKS_, symObjAddr: 0x5220, symBinAddr: 0x100006700, symSize: 0x60 }
  - { offset: 0x10469, size: 0x8, addend: 0x0, symName: __ZNSt3__128__exception_guard_exceptionsINS_29_AllocatorDestroyRangeReverseINS_9allocatorI5TokenEEPS3_EEED2B8ne180100Ev, symObjAddr: 0x5280, symBinAddr: 0x100006760, symSize: 0x40 }
  - { offset: 0x10493, size: 0x8, addend: 0x0, symName: __ZNKSt3__129_AllocatorDestroyRangeReverseINS_9allocatorI5TokenEEPS2_EclB8ne180100Ev, symObjAddr: 0x52C0, symBinAddr: 0x1000067A0, symSize: 0x60 }
  - { offset: 0x104B9, size: 0x8, addend: 0x0, symName: __ZNSt3__116reverse_iteratorIP5TokenEC1B8ne180100ES2_, symObjAddr: 0x5390, symBinAddr: 0x100006870, symSize: 0x30 }
  - { offset: 0x104F1, size: 0x8, addend: 0x0, symName: __ZNSt3__116allocator_traitsINS_9allocatorI5TokenEEE7destroyB8ne180100IS2_vEEvRS3_PT_, symObjAddr: 0x5400, symBinAddr: 0x1000068E0, symSize: 0x30 }
  - { offset: 0x1052E, size: 0x8, addend: 0x0, symName: __ZNSt3__116reverse_iteratorIP5TokenEppB8ne180100Ev, symObjAddr: 0x5450, symBinAddr: 0x100006930, symSize: 0x20 }
  - { offset: 0x10554, size: 0x8, addend: 0x0, symName: __ZNKSt3__116reverse_iteratorIP5TokenE4baseB8ne180100Ev, symObjAddr: 0x5470, symBinAddr: 0x100006950, symSize: 0x20 }
  - { offset: 0x1057A, size: 0x8, addend: 0x0, symName: __ZNSt3__19allocatorI5TokenE7destroyB8ne180100EPS1_, symObjAddr: 0x5490, symBinAddr: 0x100006970, symSize: 0x20 }
  - { offset: 0x105B3, size: 0x8, addend: 0x0, symName: __ZNSt3__119__to_address_helperINS_16reverse_iteratorIP5TokenEEvE6__callB8ne180100ERKS4_, symObjAddr: 0x54B0, symBinAddr: 0x100006990, symSize: 0x40 }
  - { offset: 0x105D6, size: 0x8, addend: 0x0, symName: __ZNKSt3__116reverse_iteratorIP5TokenEptB8ne180100Ev, symObjAddr: 0x54F0, symBinAddr: 0x1000069D0, symSize: 0x20 }
  - { offset: 0x105FC, size: 0x8, addend: 0x0, symName: __ZNKSt3__116reverse_iteratorIP5TokenEdeB8ne180100Ev, symObjAddr: 0x5510, symBinAddr: 0x1000069F0, symSize: 0x30 }
  - { offset: 0x10630, size: 0x8, addend: 0x0, symName: __ZNSt3__116reverse_iteratorIP5TokenEC2B8ne180100ES2_, symObjAddr: 0x5540, symBinAddr: 0x100006A20, symSize: 0x30 }
  - { offset: 0x10668, size: 0x8, addend: 0x0, symName: __ZNSt3__118__unwrap_iter_implIP5TokenLb1EE8__unwrapB8ne180100ES2_, symObjAddr: 0x5570, symBinAddr: 0x100006A50, symSize: 0x20 }
  - { offset: 0x1068B, size: 0x8, addend: 0x0, symName: __ZNSt3__118__unwrap_iter_implIP5TokenLb1EE8__rewrapB8ne180100ES2_S2_, symObjAddr: 0x5590, symBinAddr: 0x100006A70, symSize: 0x60 }
  - { offset: 0x106BC, size: 0x8, addend: 0x0, symName: __ZNSt3__16vectorI5TokenNS_9allocatorIS1_EEE21_ConstructTransactionD2B8ne180100Ev, symObjAddr: 0x55F0, symBinAddr: 0x100006AD0, symSize: 0x20 }
  - { offset: 0x106E6, size: 0x8, addend: 0x0, symName: __ZNSt3__128__exception_guard_exceptionsINS_6vectorI5TokenNS_9allocatorIS2_EEE16__destroy_vectorEED2B8ne180100Ev, symObjAddr: 0x5610, symBinAddr: 0x100006AF0, symSize: 0x40 }
  - { offset: 0x10710, size: 0x8, addend: 0x0, symName: __ZNSt3__16vectorI5TokenNS_9allocatorIS1_EEE16__destroy_vectorclB8ne180100Ev, symObjAddr: 0x5650, symBinAddr: 0x100006B30, symSize: 0x80 }
  - { offset: 0x10736, size: 0x8, addend: 0x0, symName: __ZNSt3__16vectorI5TokenNS_9allocatorIS1_EEE7__clearB8ne180100Ev, symObjAddr: 0x56D0, symBinAddr: 0x100006BB0, symSize: 0x20 }
  - { offset: 0x1075C, size: 0x8, addend: 0x0, symName: __ZNKSt3__16vectorI5TokenNS_9allocatorIS1_EEE17__annotate_deleteB8ne180100Ev, symObjAddr: 0x56F0, symBinAddr: 0x100006BD0, symSize: 0x10 }
  - { offset: 0x10782, size: 0x8, addend: 0x0, symName: __ZNSt3__116allocator_traitsINS_9allocatorI5TokenEEE10deallocateB8ne180100ERS3_PS2_m, symObjAddr: 0x5700, symBinAddr: 0x100006BE0, symSize: 0x30 }
  - { offset: 0x107C4, size: 0x8, addend: 0x0, symName: __ZNKSt3__16vectorI5TokenNS_9allocatorIS1_EEE8capacityB8ne180100Ev, symObjAddr: 0x5730, symBinAddr: 0x100006C10, symSize: 0x40 }
  - { offset: 0x107EA, size: 0x8, addend: 0x0, symName: __ZNSt3__16vectorI5TokenNS_9allocatorIS1_EEE22__base_destruct_at_endB8ne180100EPS1_, symObjAddr: 0x5770, symBinAddr: 0x100006C50, symSize: 0x80 }
  - { offset: 0x1082E, size: 0x8, addend: 0x0, symName: __ZNSt3__19allocatorI5TokenE10deallocateB8ne180100EPS1_m, symObjAddr: 0x57F0, symBinAddr: 0x100006CD0, symSize: 0x50 }
  - { offset: 0x10870, size: 0x8, addend: 0x0, symName: __ZNKSt3__16vectorI5TokenNS_9allocatorIS1_EEE9__end_capB8ne180100Ev, symObjAddr: 0x58B0, symBinAddr: 0x100006D90, symSize: 0x20 }
  - { offset: 0x10896, size: 0x8, addend: 0x0, symName: __ZNKSt3__117__compressed_pairIP5TokenNS_9allocatorIS1_EEE5firstB8ne180100Ev, symObjAddr: 0x58D0, symBinAddr: 0x100006DB0, symSize: 0x20 }
  - { offset: 0x108BC, size: 0x8, addend: 0x0, symName: __ZNKSt3__122__compressed_pair_elemIP5TokenLi0ELb0EE5__getB8ne180100Ev, symObjAddr: 0x58F0, symBinAddr: 0x100006DD0, symSize: 0x10 }
  - { offset: 0x108E2, size: 0x8, addend: 0x0, symName: __ZN3CSTC2Ev, symObjAddr: 0x5900, symBinAddr: 0x100006DE0, symSize: 0x20 }
  - { offset: 0x1090C, size: 0x8, addend: 0x0, symName: __ZN6ParserD2Ev, symObjAddr: 0x5920, symBinAddr: 0x100006E00, symSize: 0x20 }
  - { offset: 0x10938, size: 0x8, addend: 0x0, symName: __ZN9TokenizerD2Ev, symObjAddr: 0x5940, symBinAddr: 0x100006E20, symSize: 0x30 }
  - { offset: 0x10964, size: 0x8, addend: 0x0, symName: __ZNSt3__114basic_ofstreamIcNS_11char_traitsIcEEED2Ev, symObjAddr: 0x5970, symBinAddr: 0x100006E50, symSize: 0x60 }
  - { offset: 0x1099E, size: 0x8, addend: 0x0, symName: __ZTv0_n24_NSt3__114basic_ofstreamIcNS_11char_traitsIcEEED1Ev, symObjAddr: 0x59D0, symBinAddr: 0x100006EB0, symSize: 0x20 }
  - { offset: 0x109B5, size: 0x8, addend: 0x0, symName: __ZNSt3__114basic_ifstreamIcNS_11char_traitsIcEEED2Ev, symObjAddr: 0x59F0, symBinAddr: 0x100006ED0, symSize: 0x60 }
  - { offset: 0x109EF, size: 0x8, addend: 0x0, symName: __ZTv0_n24_NSt3__114basic_ifstreamIcNS_11char_traitsIcEEED1Ev, symObjAddr: 0x5A50, symBinAddr: 0x100006F30, symSize: 0x20 }
  - { offset: 0x10A06, size: 0x8, addend: 0x0, symName: __ZNSt3__112basic_stringIcNS_11char_traitsIcEENS_9allocatorIcEEEaSB8ne180100EOS5_, symObjAddr: 0x5A70, symBinAddr: 0x100006F50, symSize: 0x30 }
  - { offset: 0x10A3A, size: 0x8, addend: 0x0, symName: __ZNSt3__112basic_stringIcNS_11char_traitsIcEENS_9allocatorIcEEE13__move_assignB8ne180100ERS5_NS_17integral_constantIbLb1EEE, symObjAddr: 0x5AA0, symBinAddr: 0x100006F80, symSize: 0x160 }
  - { offset: 0x10A9B, size: 0x8, addend: 0x0, symName: __ZNKSt3__112basic_stringIcNS_11char_traitsIcEENS_9allocatorIcEEE17__annotate_deleteB8ne180100Ev, symObjAddr: 0x5C00, symBinAddr: 0x1000070E0, symSize: 0x10 }
  - { offset: 0x10AC1, size: 0x8, addend: 0x0, symName: __ZNKSt3__112basic_stringIcNS_11char_traitsIcEENS_9allocatorIcEEE9__is_longB8ne180100Ev, symObjAddr: 0x5C10, symBinAddr: 0x1000070F0, symSize: 0x30 }
  - { offset: 0x10AE7, size: 0x8, addend: 0x0, symName: __ZNSt3__116allocator_traitsINS_9allocatorIcEEE10deallocateB8ne180100ERS2_Pcm, symObjAddr: 0x5C40, symBinAddr: 0x100007120, symSize: 0x30 }
  - { offset: 0x10B29, size: 0x8, addend: 0x0, symName: __ZNSt3__112basic_stringIcNS_11char_traitsIcEENS_9allocatorIcEEE7__allocB8ne180100Ev, symObjAddr: 0x5C70, symBinAddr: 0x100007150, symSize: 0x20 }
  - { offset: 0x10B4F, size: 0x8, addend: 0x0, symName: __ZNSt3__112basic_stringIcNS_11char_traitsIcEENS_9allocatorIcEEE18__get_long_pointerB8ne180100Ev, symObjAddr: 0x5C90, symBinAddr: 0x100007170, symSize: 0x20 }
  - { offset: 0x10B75, size: 0x8, addend: 0x0, symName: __ZNKSt3__112basic_stringIcNS_11char_traitsIcEENS_9allocatorIcEEE14__get_long_capB8ne180100Ev, symObjAddr: 0x5CB0, symBinAddr: 0x100007190, symSize: 0x30 }
  - { offset: 0x10B9B, size: 0x8, addend: 0x0, symName: __ZNKSt3__112basic_stringIcNS_11char_traitsIcEENS_9allocatorIcEEE4sizeB8ne180100Ev, symObjAddr: 0x5CE0, symBinAddr: 0x1000071C0, symSize: 0x50 }
  - { offset: 0x10BC1, size: 0x8, addend: 0x0, symName: __ZNSt3__112basic_stringIcNS_11char_traitsIcEENS_9allocatorIcEEE19__move_assign_allocB8ne180100ERS5_, symObjAddr: 0x5D30, symBinAddr: 0x100007210, symSize: 0x30 }
  - { offset: 0x10BF6, size: 0x8, addend: 0x0, symName: __ZNSt3__117__compressed_pairINS_12basic_stringIcNS_11char_traitsIcEENS_9allocatorIcEEE5__repES5_E5firstB8ne180100Ev, symObjAddr: 0x5D60, symBinAddr: 0x100007240, symSize: 0x20 }
  - { offset: 0x10C1C, size: 0x8, addend: 0x0, symName: __ZNSt3__112basic_stringIcNS_11char_traitsIcEENS_9allocatorIcEEE16__set_short_sizeB8ne180100Em, symObjAddr: 0x5D80, symBinAddr: 0x100007260, symSize: 0x50 }
  - { offset: 0x10C51, size: 0x8, addend: 0x0, symName: __ZNSt3__111char_traitsIcE6assignB8ne180100ERcRKc, symObjAddr: 0x5DD0, symBinAddr: 0x1000072B0, symSize: 0x20 }
  - { offset: 0x10C82, size: 0x8, addend: 0x0, symName: __ZNSt3__112basic_stringIcNS_11char_traitsIcEENS_9allocatorIcEEE19__get_short_pointerB8ne180100Ev, symObjAddr: 0x5DF0, symBinAddr: 0x1000072D0, symSize: 0x30 }
  - { offset: 0x10CA8, size: 0x8, addend: 0x0, symName: __ZNKSt3__112basic_stringIcNS_11char_traitsIcEENS_9allocatorIcEEE17__annotate_shrinkB8ne180100Em, symObjAddr: 0x5E20, symBinAddr: 0x100007300, symSize: 0x10 }
  - { offset: 0x10CDD, size: 0x8, addend: 0x0, symName: __ZNKSt3__112basic_stringIcNS_11char_traitsIcEENS_9allocatorIcEEE14__annotate_newB8ne180100Em, symObjAddr: 0x5E30, symBinAddr: 0x100007310, symSize: 0x10 }
  - { offset: 0x10D12, size: 0x8, addend: 0x0, symName: __ZNKSt3__112basic_stringIcNS_11char_traitsIcEENS_9allocatorIcEEE16__get_short_sizeB8ne180100Ev, symObjAddr: 0x5E40, symBinAddr: 0x100007320, symSize: 0x30 }
  - { offset: 0x10D38, size: 0x8, addend: 0x0, symName: __ZNKSt3__117__compressed_pairINS_12basic_stringIcNS_11char_traitsIcEENS_9allocatorIcEEE5__repES5_E5firstB8ne180100Ev, symObjAddr: 0x5E70, symBinAddr: 0x100007350, symSize: 0x20 }
  - { offset: 0x10D5E, size: 0x8, addend: 0x0, symName: __ZNKSt3__122__compressed_pair_elemINS_12basic_stringIcNS_11char_traitsIcEENS_9allocatorIcEEE5__repELi0ELb0EE5__getB8ne180100Ev, symObjAddr: 0x5E90, symBinAddr: 0x100007370, symSize: 0x10 }
  - { offset: 0x10D84, size: 0x8, addend: 0x0, symName: __ZNSt3__19allocatorIcE10deallocateB8ne180100EPcm, symObjAddr: 0x5EA0, symBinAddr: 0x100007380, symSize: 0x40 }
  - { offset: 0x10DC6, size: 0x8, addend: 0x0, symName: __ZNSt3__117__compressed_pairINS_12basic_stringIcNS_11char_traitsIcEENS_9allocatorIcEEE5__repES5_E6secondB8ne180100Ev, symObjAddr: 0x5EE0, symBinAddr: 0x1000073C0, symSize: 0x20 }
  - { offset: 0x10DEC, size: 0x8, addend: 0x0, symName: __ZNSt3__122__compressed_pair_elemINS_9allocatorIcEELi1ELb1EE5__getB8ne180100Ev, symObjAddr: 0x5F00, symBinAddr: 0x1000073E0, symSize: 0x10 }
  - { offset: 0x10E12, size: 0x8, addend: 0x0, symName: __ZNKSt3__112basic_stringIcNS_11char_traitsIcEENS_9allocatorIcEEE15__get_long_sizeB8ne180100Ev, symObjAddr: 0x5F10, symBinAddr: 0x1000073F0, symSize: 0x20 }
  - { offset: 0x10E38, size: 0x8, addend: 0x0, symName: __ZNSt3__112basic_stringIcNS_11char_traitsIcEENS_9allocatorIcEEE19__move_assign_allocB8ne180100ERS5_NS_17integral_constantIbLb1EEE, symObjAddr: 0x5F30, symBinAddr: 0x100007410, symSize: 0x30 }
  - { offset: 0x10E79, size: 0x8, addend: 0x0, symName: __ZNSt3__122__compressed_pair_elemINS_12basic_stringIcNS_11char_traitsIcEENS_9allocatorIcEEE5__repELi0ELb0EE5__getB8ne180100Ev, symObjAddr: 0x5F60, symBinAddr: 0x100007440, symSize: 0x10 }
  - { offset: 0x10E9F, size: 0x8, addend: 0x0, symName: __ZNSt3__114pointer_traitsIPcE10pointer_toB8ne180100ERc, symObjAddr: 0x5F70, symBinAddr: 0x100007450, symSize: 0x10 }
  - { offset: 0x10EC2, size: 0x8, addend: 0x0, symName: __ZN5TokenD2Ev, symObjAddr: 0x5F80, symBinAddr: 0x100007460, symSize: 0x20 }
  - { offset: 0x10EEE, size: 0x8, addend: 0x0, symName: __ZNSt3__15stackI5TokenNS_5dequeIS1_NS_9allocatorIS1_EEEEED2Ev, symObjAddr: 0x5FA0, symBinAddr: 0x100007480, symSize: 0x20 }
  - { offset: 0x10F1A, size: 0x8, addend: 0x0, symName: __ZNSt3__15dequeI5TokenNS_9allocatorIS1_EEED1B8ne180100Ev, symObjAddr: 0x5FC0, symBinAddr: 0x1000074A0, symSize: 0x20 }
  - { offset: 0x10F44, size: 0x8, addend: 0x0, symName: __ZNSt3__15dequeI5TokenNS_9allocatorIS1_EEED2B8ne180100Ev, symObjAddr: 0x5FE0, symBinAddr: 0x1000074C0, symSize: 0x90 }
  - { offset: 0x10F9A, size: 0x8, addend: 0x0, symName: __ZNSt3__15dequeI5TokenNS_9allocatorIS1_EEE5clearEv, symObjAddr: 0x6070, symBinAddr: 0x100007550, symSize: 0x1A0 }
  - { offset: 0x10FF5, size: 0x8, addend: 0x0, symName: __ZNKSt3__15dequeI5TokenNS_9allocatorIS1_EEE17__annotate_deleteB8ne180100Ev, symObjAddr: 0x6210, symBinAddr: 0x1000076F0, symSize: 0x10 }
  - { offset: 0x1101B, size: 0x8, addend: 0x0, symName: __ZNSt3__114__split_bufferIP5TokenNS_9allocatorIS2_EEE5beginB8ne180100Ev, symObjAddr: 0x6220, symBinAddr: 0x100007700, symSize: 0x20 }
  - { offset: 0x11041, size: 0x8, addend: 0x0, symName: __ZNSt3__114__split_bufferIP5TokenNS_9allocatorIS2_EEE3endB8ne180100Ev, symObjAddr: 0x6240, symBinAddr: 0x100007720, symSize: 0x20 }
  - { offset: 0x11067, size: 0x8, addend: 0x0, symName: __ZNSt3__15dequeI5TokenNS_9allocatorIS1_EEE7__allocB8ne180100Ev, symObjAddr: 0x6260, symBinAddr: 0x100007740, symSize: 0x20 }
  - { offset: 0x1108D, size: 0x8, addend: 0x0, symName: __ZNSt3__114__split_bufferIP5TokenNS_9allocatorIS2_EEED1Ev, symObjAddr: 0x6280, symBinAddr: 0x100007760, symSize: 0x20 }
  - { offset: 0x110B9, size: 0x8, addend: 0x0, symName: __ZNSt3__15dequeI5TokenNS_9allocatorIS1_EEE5beginB8ne180100Ev, symObjAddr: 0x62A0, symBinAddr: 0x100007780, symSize: 0xD0 }
  - { offset: 0x110EE, size: 0x8, addend: 0x0, symName: __ZNSt3__15dequeI5TokenNS_9allocatorIS1_EEE3endB8ne180100Ev, symObjAddr: 0x6370, symBinAddr: 0x100007850, symSize: 0xC0 }
  - { offset: 0x11132, size: 0x8, addend: 0x0, symName: __ZNKSt3__116__deque_iteratorI5TokenPS1_RS1_PS2_lLl56EEdeB8ne180100Ev, symObjAddr: 0x6460, symBinAddr: 0x100007940, symSize: 0x20 }
  - { offset: 0x11158, size: 0x8, addend: 0x0, symName: __ZNSt3__116__deque_iteratorI5TokenPS1_RS1_PS2_lLl56EEppB8ne180100Ev, symObjAddr: 0x6480, symBinAddr: 0x100007960, symSize: 0x60 }
  - { offset: 0x1117E, size: 0x8, addend: 0x0, symName: __ZNSt3__15dequeI5TokenNS_9allocatorIS1_EEE6__sizeB8ne180100Ev, symObjAddr: 0x64E0, symBinAddr: 0x1000079C0, symSize: 0x20 }
  - { offset: 0x111A4, size: 0x8, addend: 0x0, symName: __ZNKSt3__114__split_bufferIP5TokenNS_9allocatorIS2_EEE4sizeB8ne180100Ev, symObjAddr: 0x6500, symBinAddr: 0x1000079E0, symSize: 0x20 }
  - { offset: 0x111CA, size: 0x8, addend: 0x0, symName: __ZNSt3__114__split_bufferIP5TokenNS_9allocatorIS2_EEE5frontB8ne180100Ev, symObjAddr: 0x6520, symBinAddr: 0x100007A00, symSize: 0x20 }
  - { offset: 0x111F0, size: 0x8, addend: 0x0, symName: __ZNSt3__114__split_bufferIP5TokenNS_9allocatorIS2_EEE9pop_frontB8ne180100Ev, symObjAddr: 0x6540, symBinAddr: 0x100007A20, symSize: 0x30 }
  - { offset: 0x11216, size: 0x8, addend: 0x0, symName: __ZNKSt3__15dequeI5TokenNS_9allocatorIS1_EEE14__annotate_newB8ne180100Em, symObjAddr: 0x6570, symBinAddr: 0x100007A50, symSize: 0x10 }
  - { offset: 0x1124B, size: 0x8, addend: 0x0, symName: __ZNKSt3__114__split_bufferIP5TokenNS_9allocatorIS2_EEE5emptyB8ne180100Ev, symObjAddr: 0x6580, symBinAddr: 0x100007A60, symSize: 0x20 }
  - { offset: 0x11271, size: 0x8, addend: 0x0, symName: __ZNSt3__116__deque_iteratorI5TokenPS1_RS1_PS2_lLl56EEC1B8ne180100ES4_S2_, symObjAddr: 0x65A0, symBinAddr: 0x100007A80, symSize: 0x30 }
  - { offset: 0x112B9, size: 0x8, addend: 0x0, symName: __ZNSt3__116__deque_iteratorI5TokenPS1_RS1_PS2_lLl56EEC2B8ne180100ES4_S2_, symObjAddr: 0x65D0, symBinAddr: 0x100007AB0, symSize: 0x30 }
  - { offset: 0x11301, size: 0x8, addend: 0x0, symName: __ZNKSt3__15dequeI5TokenNS_9allocatorIS1_EEE4sizeB8ne180100Ev, symObjAddr: 0x6600, symBinAddr: 0x100007AE0, symSize: 0x20 }
  - { offset: 0x11327, size: 0x8, addend: 0x0, symName: __ZNKSt3__15dequeI5TokenNS_9allocatorIS1_EEE6__sizeB8ne180100Ev, symObjAddr: 0x6620, symBinAddr: 0x100007B00, symSize: 0x20 }
  - { offset: 0x1134D, size: 0x8, addend: 0x0, symName: __ZNKSt3__117__compressed_pairImNS_9allocatorI5TokenEEE5firstB8ne180100Ev, symObjAddr: 0x6640, symBinAddr: 0x100007B20, symSize: 0x20 }
  - { offset: 0x11373, size: 0x8, addend: 0x0, symName: __ZNKSt3__122__compressed_pair_elemImLi0ELb0EE5__getB8ne180100Ev, symObjAddr: 0x6660, symBinAddr: 0x100007B40, symSize: 0x10 }
  - { offset: 0x11399, size: 0x8, addend: 0x0, symName: __ZNSt3__117__compressed_pairImNS_9allocatorI5TokenEEE5firstB8ne180100Ev, symObjAddr: 0x66A0, symBinAddr: 0x100007B80, symSize: 0x20 }
  - { offset: 0x113BF, size: 0x8, addend: 0x0, symName: __ZNSt3__122__compressed_pair_elemImLi0ELb0EE5__getB8ne180100Ev, symObjAddr: 0x66C0, symBinAddr: 0x100007BA0, symSize: 0x10 }
  - { offset: 0x113E5, size: 0x8, addend: 0x0, symName: __ZNSt3__114__split_bufferIP5TokenNS_9allocatorIS2_EEE19__destruct_at_beginB8ne180100EPS2_, symObjAddr: 0x66D0, symBinAddr: 0x100007BB0, symSize: 0x30 }
  - { offset: 0x11418, size: 0x8, addend: 0x0, symName: __ZNSt3__114__split_bufferIP5TokenNS_9allocatorIS2_EEE19__destruct_at_beginEPS2_NS_17integral_constantIbLb1EEE, symObjAddr: 0x6700, symBinAddr: 0x100007BE0, symSize: 0x20 }
  - { offset: 0x11458, size: 0x8, addend: 0x0, symName: __ZNSt3__117__compressed_pairImNS_9allocatorI5TokenEEE6secondB8ne180100Ev, symObjAddr: 0x6720, symBinAddr: 0x100007C00, symSize: 0x20 }
  - { offset: 0x1147E, size: 0x8, addend: 0x0, symName: __ZNSt3__114__split_bufferIP5TokenNS_9allocatorIS2_EEED2Ev, symObjAddr: 0x6740, symBinAddr: 0x100007C20, symSize: 0x70 }
  - { offset: 0x114AA, size: 0x8, addend: 0x0, symName: __ZNSt3__114__split_bufferIP5TokenNS_9allocatorIS2_EEE5clearB8ne180100Ev, symObjAddr: 0x67B0, symBinAddr: 0x100007C90, symSize: 0x20 }
  - { offset: 0x114D0, size: 0x8, addend: 0x0, symName: __ZNSt3__116allocator_traitsINS_9allocatorIP5TokenEEE10deallocateB8ne180100ERS4_PS3_m, symObjAddr: 0x67D0, symBinAddr: 0x100007CB0, symSize: 0x30 }
  - { offset: 0x11512, size: 0x8, addend: 0x0, symName: __ZNSt3__114__split_bufferIP5TokenNS_9allocatorIS2_EEE7__allocB8ne180100Ev, symObjAddr: 0x6800, symBinAddr: 0x100007CE0, symSize: 0x20 }
  - { offset: 0x11538, size: 0x8, addend: 0x0, symName: __ZNKSt3__114__split_bufferIP5TokenNS_9allocatorIS2_EEE8capacityB8ne180100Ev, symObjAddr: 0x6820, symBinAddr: 0x100007D00, symSize: 0x30 }
  - { offset: 0x1155E, size: 0x8, addend: 0x0, symName: __ZNSt3__114__split_bufferIP5TokenNS_9allocatorIS2_EEE17__destruct_at_endB8ne180100EPS2_, symObjAddr: 0x6850, symBinAddr: 0x100007D30, symSize: 0x30 }
  - { offset: 0x11591, size: 0x8, addend: 0x0, symName: __ZNSt3__114__split_bufferIP5TokenNS_9allocatorIS2_EEE17__destruct_at_endB8ne180100EPS2_NS_17integral_constantIbLb0EEE, symObjAddr: 0x6880, symBinAddr: 0x100007D60, symSize: 0x80 }
  - { offset: 0x115D1, size: 0x8, addend: 0x0, symName: __ZNSt3__116allocator_traitsINS_9allocatorIP5TokenEEE7destroyB8ne180100IS3_vEEvRS4_PT_, symObjAddr: 0x6900, symBinAddr: 0x100007DE0, symSize: 0x30 }
  - { offset: 0x1160E, size: 0x8, addend: 0x0, symName: __ZNSt3__19allocatorIP5TokenE7destroyB8ne180100EPS2_, symObjAddr: 0x6940, symBinAddr: 0x100007E20, symSize: 0x10 }
  - { offset: 0x11642, size: 0x8, addend: 0x0, symName: __ZNSt3__19allocatorIP5TokenE10deallocateB8ne180100EPS2_m, symObjAddr: 0x6950, symBinAddr: 0x100007E30, symSize: 0x40 }
  - { offset: 0x11684, size: 0x8, addend: 0x0, symName: __ZNSt3__117__compressed_pairIPP5TokenNS_9allocatorIS2_EEE6secondB8ne180100Ev, symObjAddr: 0x6990, symBinAddr: 0x100007E70, symSize: 0x20 }
  - { offset: 0x116AA, size: 0x8, addend: 0x0, symName: __ZNSt3__122__compressed_pair_elemINS_9allocatorIP5TokenEELi1ELb1EE5__getB8ne180100Ev, symObjAddr: 0x69B0, symBinAddr: 0x100007E90, symSize: 0x10 }
  - { offset: 0x116D0, size: 0x8, addend: 0x0, symName: __ZNKSt3__114__split_bufferIP5TokenNS_9allocatorIS2_EEE9__end_capB8ne180100Ev, symObjAddr: 0x69C0, symBinAddr: 0x100007EA0, symSize: 0x20 }
  - { offset: 0x116F6, size: 0x8, addend: 0x0, symName: __ZNKSt3__117__compressed_pairIPP5TokenNS_9allocatorIS2_EEE5firstB8ne180100Ev, symObjAddr: 0x69E0, symBinAddr: 0x100007EC0, symSize: 0x20 }
  - { offset: 0x1171C, size: 0x8, addend: 0x0, symName: __ZNKSt3__122__compressed_pair_elemIPP5TokenLi0ELb0EE5__getB8ne180100Ev, symObjAddr: 0x6A00, symBinAddr: 0x100007EE0, symSize: 0x10 }
  - { offset: 0x11742, size: 0x8, addend: 0x0, symName: __ZNSt3__16vectorI5TokenNS_9allocatorIS1_EEED2B8ne180100Ev, symObjAddr: 0x6A10, symBinAddr: 0x100007EF0, symSize: 0x40 }
  - { offset: 0x1176C, size: 0x8, addend: 0x0, symName: __ZNSt3__111char_traitsIcE6lengthB8ne180100EPKc, symObjAddr: 0x6C40, symBinAddr: 0x100008120, symSize: 0x30 }
  - { offset: 0x117AD, size: 0x8, addend: 0x0, symName: __ZNKSt3__113basic_ostreamIcNS_11char_traitsIcEEE6sentrycvbB8ne180100Ev, symObjAddr: 0x6C70, symBinAddr: 0x100008150, symSize: 0x20 }
  - { offset: 0x117D3, size: 0x8, addend: 0x0, symName: __ZNSt3__119ostreambuf_iteratorIcNS_11char_traitsIcEEEC1B8ne180100ERNS_13basic_ostreamIcS2_EE, symObjAddr: 0x6EB0, symBinAddr: 0x100008390, symSize: 0x30 }
  - { offset: 0x1180A, size: 0x8, addend: 0x0, symName: __ZNKSt3__18ios_base5flagsB8ne180100Ev, symObjAddr: 0x6EE0, symBinAddr: 0x1000083C0, symSize: 0x20 }
  - { offset: 0x11831, size: 0x8, addend: 0x0, symName: __ZNKSt3__19basic_iosIcNS_11char_traitsIcEEE4fillB8ne180100Ev, symObjAddr: 0x6F00, symBinAddr: 0x1000083E0, symSize: 0x70 }
  - { offset: 0x11859, size: 0x8, addend: 0x0, symName: __ZNKSt3__119ostreambuf_iteratorIcNS_11char_traitsIcEEE6failedB8ne180100Ev, symObjAddr: 0x6F70, symBinAddr: 0x100008450, symSize: 0x20 }
  - { offset: 0x1187F, size: 0x8, addend: 0x0, symName: __ZNSt3__19basic_iosIcNS_11char_traitsIcEEE8setstateB8ne180100Ej, symObjAddr: 0x6F90, symBinAddr: 0x100008470, symSize: 0x30 }
  - { offset: 0x118B3, size: 0x8, addend: 0x0, symName: __ZNKSt3__18ios_base5widthB8ne180100Ev, symObjAddr: 0x6FC0, symBinAddr: 0x1000084A0, symSize: 0x20 }
  - { offset: 0x118DB, size: 0x8, addend: 0x0, symName: __ZNSt3__115basic_streambufIcNS_11char_traitsIcEEE5sputnB8ne180100EPKcl, symObjAddr: 0x6FE0, symBinAddr: 0x1000084C0, symSize: 0x30 }
  - { offset: 0x1191D, size: 0x8, addend: 0x0, symName: __ZNSt3__112basic_stringIcNS_11char_traitsIcEENS_9allocatorIcEEEC1B8ne180100Emc, symObjAddr: 0x7010, symBinAddr: 0x1000084F0, symSize: 0x30 }
  - { offset: 0x11965, size: 0x8, addend: 0x0, symName: __ZNKSt3__112basic_stringIcNS_11char_traitsIcEENS_9allocatorIcEEE4dataB8ne180100Ev, symObjAddr: 0x7040, symBinAddr: 0x100008520, symSize: 0x30 }
  - { offset: 0x1198A, size: 0x8, addend: 0x0, symName: __ZNSt3__18ios_base5widthB8ne180100El, symObjAddr: 0x7070, symBinAddr: 0x100008550, symSize: 0x30 }
  - { offset: 0x119D0, size: 0x8, addend: 0x0, symName: __ZNSt3__112basic_stringIcNS_11char_traitsIcEENS_9allocatorIcEEEC2B8ne180100Emc, symObjAddr: 0x70A0, symBinAddr: 0x100008580, symSize: 0x50 }
  - { offset: 0x11A1D, size: 0x8, addend: 0x0, symName: __ZNSt3__117__compressed_pairINS_12basic_stringIcNS_11char_traitsIcEENS_9allocatorIcEEE5__repES5_EC1B8ne180100INS_18__default_init_tagESA_EEOT_OT0_, symObjAddr: 0x70F0, symBinAddr: 0x1000085D0, symSize: 0x30 }
  - { offset: 0x11A75, size: 0x8, addend: 0x0, symName: __ZNSt3__117__compressed_pairINS_12basic_stringIcNS_11char_traitsIcEENS_9allocatorIcEEE5__repES5_EC2B8ne180100INS_18__default_init_tagESA_EEOT_OT0_, symObjAddr: 0x7120, symBinAddr: 0x100008600, symSize: 0x30 }
  - { offset: 0x11ACD, size: 0x8, addend: 0x0, symName: __ZNSt3__122__compressed_pair_elemINS_12basic_stringIcNS_11char_traitsIcEENS_9allocatorIcEEE5__repELi0ELb0EEC2B8ne180100ENS_18__default_init_tagE, symObjAddr: 0x7150, symBinAddr: 0x100008630, symSize: 0x10 }
  - { offset: 0x11B01, size: 0x8, addend: 0x0, symName: __ZNSt3__122__compressed_pair_elemINS_9allocatorIcEELi1ELb1EEC2B8ne180100ENS_18__default_init_tagE, symObjAddr: 0x7160, symBinAddr: 0x100008640, symSize: 0x20 }
  - { offset: 0x11B35, size: 0x8, addend: 0x0, symName: __ZNSt3__19allocatorIcEC2B8ne180100Ev, symObjAddr: 0x7180, symBinAddr: 0x100008660, symSize: 0x20 }
  - { offset: 0x11B5F, size: 0x8, addend: 0x0, symName: __ZNSt3__116__non_trivial_ifILb1ENS_9allocatorIcEEEC2B8ne180100Ev, symObjAddr: 0x71A0, symBinAddr: 0x100008680, symSize: 0x10 }
  - { offset: 0x11B89, size: 0x8, addend: 0x0, symName: __ZNKSt3__112basic_stringIcNS_11char_traitsIcEENS_9allocatorIcEEE13__get_pointerB8ne180100Ev, symObjAddr: 0x71C0, symBinAddr: 0x1000086A0, symSize: 0x50 }
  - { offset: 0x11BAF, size: 0x8, addend: 0x0, symName: __ZNKSt3__112basic_stringIcNS_11char_traitsIcEENS_9allocatorIcEEE18__get_long_pointerB8ne180100Ev, symObjAddr: 0x7210, symBinAddr: 0x1000086F0, symSize: 0x20 }
  - { offset: 0x11BD5, size: 0x8, addend: 0x0, symName: __ZNKSt3__112basic_stringIcNS_11char_traitsIcEENS_9allocatorIcEEE19__get_short_pointerB8ne180100Ev, symObjAddr: 0x7230, symBinAddr: 0x100008710, symSize: 0x30 }
  - { offset: 0x11BFB, size: 0x8, addend: 0x0, symName: __ZNSt3__114pointer_traitsIPKcE10pointer_toB8ne180100ERS1_, symObjAddr: 0x7260, symBinAddr: 0x100008740, symSize: 0x10 }
  - { offset: 0x11C1E, size: 0x8, addend: 0x0, symName: __ZNSt3__119ostreambuf_iteratorIcNS_11char_traitsIcEEEC2B8ne180100ERNS_13basic_ostreamIcS2_EE, symObjAddr: 0x7270, symBinAddr: 0x100008750, symSize: 0x50 }
  - { offset: 0x11C55, size: 0x8, addend: 0x0, symName: __ZNKSt3__19basic_iosIcNS_11char_traitsIcEEE5rdbufB8ne180100Ev, symObjAddr: 0x72C0, symBinAddr: 0x1000087A0, symSize: 0x20 }
  - { offset: 0x11C7D, size: 0x8, addend: 0x0, symName: __ZNKSt3__18ios_base5rdbufB8ne180100Ev, symObjAddr: 0x72E0, symBinAddr: 0x1000087C0, symSize: 0x20 }
  - { offset: 0x11CA3, size: 0x8, addend: 0x0, symName: __ZNSt3__111char_traitsIcE11eq_int_typeB8ne180100Eii, symObjAddr: 0x7300, symBinAddr: 0x1000087E0, symSize: 0x20 }
  - { offset: 0x11CD6, size: 0x8, addend: 0x0, symName: __ZNSt3__111char_traitsIcE3eofB8ne180100Ev, symObjAddr: 0x7320, symBinAddr: 0x100008800, symSize: 0x10 }
  - { offset: 0x11CE9, size: 0x8, addend: 0x0, symName: __ZNKSt3__19basic_iosIcNS_11char_traitsIcEEE5widenB8ne180100Ec, symObjAddr: 0x7330, symBinAddr: 0x100008810, symSize: 0x80 }
  - { offset: 0x11D5D, size: 0x8, addend: 0x0, symName: __ZNKSt3__15ctypeIcE5widenB8ne180100Ec, symObjAddr: 0x73E0, symBinAddr: 0x1000088C0, symSize: 0x30 }
  - { offset: 0x11D91, size: 0x8, addend: 0x0, symName: __ZNSt3__18ios_base8setstateB8ne180100Ej, symObjAddr: 0x7410, symBinAddr: 0x1000088F0, symSize: 0x30 }
  - { offset: 0x11DC8, size: 0x8, addend: 0x0, symName: __ZNSt3__19basic_iosIcNS_11char_traitsIcEEEC2B8ne180100Ev, symObjAddr: 0x7460, symBinAddr: 0x100008940, symSize: 0x40 }
  - { offset: 0x11DF2, size: 0x8, addend: 0x0, symName: __ZNSt3__113basic_istreamIcNS_11char_traitsIcEEEC2B8ne180100EPNS_15basic_streambufIcS2_EE, symObjAddr: 0x74A0, symBinAddr: 0x100008980, symSize: 0x50 }
  - { offset: 0x11E37, size: 0x8, addend: 0x0, symName: __ZNSt3__18ios_baseC2B8ne180100Ev, symObjAddr: 0x74F0, symBinAddr: 0x1000089D0, symSize: 0x20 }
  - { offset: 0x11E60, size: 0x8, addend: 0x0, symName: __ZNSt3__19basic_iosIcNS_11char_traitsIcEEE4initB8ne180100EPNS_15basic_streambufIcS2_EE, symObjAddr: 0x7510, symBinAddr: 0x1000089F0, symSize: 0x50 }
  - { offset: 0x11E96, size: 0x8, addend: 0x0, symName: __ZNKSt3__113basic_filebufIcNS_11char_traitsIcEEE7is_openEv, symObjAddr: 0x7560, symBinAddr: 0x100008A40, symSize: 0x20 }
  - { offset: 0x11EBE, size: 0x8, addend: 0x0, symName: __ZNSt3__112basic_stringIcNS_11char_traitsIcEENS_9allocatorIcEEEC2B8ne180100ILi0EEEPKc, symObjAddr: 0x7580, symBinAddr: 0x100008A60, symSize: 0x50 }
  - { offset: 0x11EFD, size: 0x8, addend: 0x0, symName: __ZNSt3__112basic_stringIcNS_11char_traitsIcEENS_9allocatorIcEEE14__erase_to_endB8ne180100Em, symObjAddr: 0x75D0, symBinAddr: 0x100008AB0, symSize: 0x40 }
  - { offset: 0x11F32, size: 0x8, addend: 0x0, symName: __ZNSt3__112basic_stringIcNS_11char_traitsIcEENS_9allocatorIcEEE19__null_terminate_atB8ne180100EPcm, symObjAddr: 0x7610, symBinAddr: 0x100008AF0, symSize: 0x90 }
  - { offset: 0x11F85, size: 0x8, addend: 0x0, symName: __ZNSt3__112basic_stringIcNS_11char_traitsIcEENS_9allocatorIcEEE13__get_pointerB8ne180100Ev, symObjAddr: 0x76B0, symBinAddr: 0x100008B90, symSize: 0x50 }
  - { offset: 0x11FAB, size: 0x8, addend: 0x0, symName: __ZNKSt3__112basic_stringIcNS_11char_traitsIcEENS_9allocatorIcEEE19__annotate_increaseB8ne180100Em, symObjAddr: 0x7700, symBinAddr: 0x100008BE0, symSize: 0x10 }
  - { offset: 0x11FE0, size: 0x8, addend: 0x0, symName: __ZNSt3__112basic_stringIcNS_11char_traitsIcEENS_9allocatorIcEEE10__set_sizeB8ne180100Em, symObjAddr: 0x7710, symBinAddr: 0x100008BF0, symSize: 0x50 }
  - { offset: 0x12015, size: 0x8, addend: 0x0, symName: __ZNSt3__112basic_stringIcNS_11char_traitsIcEENS_9allocatorIcEEE15__set_long_sizeB8ne180100Em, symObjAddr: 0x7760, symBinAddr: 0x100008C40, symSize: 0x30 }
  - { offset: 0x12054, size: 0x8, addend: 0x0, symName: __ZNSt3__116allocator_traitsINS_9allocatorIcEEE37select_on_container_copy_constructionB8ne180100IS2_vvEES2_RKS2_, symObjAddr: 0x7790, symBinAddr: 0x100008C70, symSize: 0x10 }
  - { offset: 0x12083, size: 0x8, addend: 0x0, symName: __ZNKSt3__112basic_stringIcNS_11char_traitsIcEENS_9allocatorIcEEE13get_allocatorB8ne180100Ev, symObjAddr: 0x77A0, symBinAddr: 0x100008C80, symSize: 0x20 }
  - { offset: 0x120A9, size: 0x8, addend: 0x0, symName: __ZNSt3__112basic_stringIcNS_11char_traitsIcEENS_9allocatorIcEEEC1B8ne180100ENS_24__uninitialized_size_tagEmRKS4_, symObjAddr: 0x77C0, symBinAddr: 0x100008CA0, symSize: 0x30 }
  - { offset: 0x120FD, size: 0x8, addend: 0x0, symName: __ZNSt3__111char_traitsIcE4copyB8ne180100EPcPKcm, symObjAddr: 0x77F0, symBinAddr: 0x100008CD0, symSize: 0x40 }
  - { offset: 0x1213C, size: 0x8, addend: 0x0, symName: __ZNSt3__111char_traitsIcE6assignB8ne180100EPcmc, symObjAddr: 0x7830, symBinAddr: 0x100008D10, symSize: 0x40 }
  - { offset: 0x1217B, size: 0x8, addend: 0x0, symName: __ZNKSt3__112basic_stringIcNS_11char_traitsIcEENS_9allocatorIcEEE7__allocB8ne180100Ev, symObjAddr: 0x7870, symBinAddr: 0x100008D50, symSize: 0x20 }
  - { offset: 0x121A1, size: 0x8, addend: 0x0, symName: __ZNKSt3__117__compressed_pairINS_12basic_stringIcNS_11char_traitsIcEENS_9allocatorIcEEE5__repES5_E6secondB8ne180100Ev, symObjAddr: 0x7890, symBinAddr: 0x100008D70, symSize: 0x20 }
  - { offset: 0x121C7, size: 0x8, addend: 0x0, symName: __ZNKSt3__122__compressed_pair_elemINS_9allocatorIcEELi1ELb1EE5__getB8ne180100Ev, symObjAddr: 0x78B0, symBinAddr: 0x100008D90, symSize: 0x10 }
  - { offset: 0x121ED, size: 0x8, addend: 0x0, symName: __ZNSt3__112basic_stringIcNS_11char_traitsIcEENS_9allocatorIcEEEC2B8ne180100ENS_24__uninitialized_size_tagEmRKS4_, symObjAddr: 0x78C0, symBinAddr: 0x100008DA0, symSize: 0x120 }
  - { offset: 0x12270, size: 0x8, addend: 0x0, symName: __ZNSt3__117__compressed_pairINS_12basic_stringIcNS_11char_traitsIcEENS_9allocatorIcEEE5__repES5_EC1B8ne180100INS_18__default_init_tagERKS5_EEOT_OT0_, symObjAddr: 0x79E0, symBinAddr: 0x100008EC0, symSize: 0x30 }
  - { offset: 0x122C8, size: 0x8, addend: 0x0, symName: __ZNKSt3__112basic_stringIcNS_11char_traitsIcEENS_9allocatorIcEEE8max_sizeB8ne180100Ev, symObjAddr: 0x7A10, symBinAddr: 0x100008EF0, symSize: 0xA0 }
  - { offset: 0x1231B, size: 0x8, addend: 0x0, symName: __ZNKSt3__112basic_stringIcNS_11char_traitsIcEENS_9allocatorIcEEE20__throw_length_errorB8ne180100Ev, symObjAddr: 0x7AB0, symBinAddr: 0x100008F90, symSize: 0x20 }
  - { offset: 0x12341, size: 0x8, addend: 0x0, symName: __ZNSt3__112basic_stringIcNS_11char_traitsIcEENS_9allocatorIcEEE13__fits_in_ssoB8ne180100Em, symObjAddr: 0x7AD0, symBinAddr: 0x100008FB0, symSize: 0x20 }
  - { offset: 0x12365, size: 0x8, addend: 0x0, symName: __ZNSt3__112basic_stringIcNS_11char_traitsIcEENS_9allocatorIcEEE11__recommendB8ne180100Em, symObjAddr: 0x7AF0, symBinAddr: 0x100008FD0, symSize: 0x70 }
  - { offset: 0x12398, size: 0x8, addend: 0x0, symName: __ZNSt3__116allocator_traitsINS_9allocatorIcEEE8allocateB8ne180100ERS2_m, symObjAddr: 0x7B60, symBinAddr: 0x100009040, symSize: 0x30 }
  - { offset: 0x123CB, size: 0x8, addend: 0x0, symName: __ZNSt3__112basic_stringIcNS_11char_traitsIcEENS_9allocatorIcEEE16__begin_lifetimeB8ne180100EPcm, symObjAddr: 0x7B90, symBinAddr: 0x100009070, symSize: 0x10 }
  - { offset: 0x123FE, size: 0x8, addend: 0x0, symName: __ZNSt3__112basic_stringIcNS_11char_traitsIcEENS_9allocatorIcEEE14__set_long_capB8ne180100Em, symObjAddr: 0x7BA0, symBinAddr: 0x100009080, symSize: 0x70 }
  - { offset: 0x12433, size: 0x8, addend: 0x0, symName: __ZNSt3__112basic_stringIcNS_11char_traitsIcEENS_9allocatorIcEEE18__set_long_pointerB8ne180100EPc, symObjAddr: 0x7C10, symBinAddr: 0x1000090F0, symSize: 0x30 }
  - { offset: 0x12468, size: 0x8, addend: 0x0, symName: __ZNSt3__117__compressed_pairINS_12basic_stringIcNS_11char_traitsIcEENS_9allocatorIcEEE5__repES5_EC2B8ne180100INS_18__default_init_tagERKS5_EEOT_OT0_, symObjAddr: 0x7C40, symBinAddr: 0x100009120, symSize: 0x40 }
  - { offset: 0x124C0, size: 0x8, addend: 0x0, symName: __ZNSt3__122__compressed_pair_elemINS_9allocatorIcEELi1ELb1EEC2B8ne180100IRKS2_vEEOT_, symObjAddr: 0x7C80, symBinAddr: 0x100009160, symSize: 0x10 }
  - { offset: 0x12502, size: 0x8, addend: 0x0, symName: __ZNSt3__116allocator_traitsINS_9allocatorIcEEE8max_sizeB8ne180100IS2_vEEmRKS2_, symObjAddr: 0x7C90, symBinAddr: 0x100009170, symSize: 0x20 }
  - { offset: 0x12530, size: 0x8, addend: 0x0, symName: __ZNSt3__114numeric_limitsImE3maxB8ne180100Ev, symObjAddr: 0x7CB0, symBinAddr: 0x100009190, symSize: 0x10 }
  - { offset: 0x12544, size: 0x8, addend: 0x0, symName: __ZNKSt3__19allocatorIcE8max_sizeB8ne180100Ev, symObjAddr: 0x7CC0, symBinAddr: 0x1000091A0, symSize: 0x20 }
  - { offset: 0x1256A, size: 0x8, addend: 0x0, symName: __ZNSt3__123__libcpp_numeric_limitsImLb1EE3maxB8ne180100Ev, symObjAddr: 0x7CE0, symBinAddr: 0x1000091C0, symSize: 0x10 }
  - { offset: 0x1257E, size: 0x8, addend: 0x0, symName: __ZNSt3__112basic_stringIcNS_11char_traitsIcEENS_9allocatorIcEEE10__align_itB8ne180100ILm8EEEmm, symObjAddr: 0x7CF0, symBinAddr: 0x1000091D0, symSize: 0x20 }
  - { offset: 0x125AC, size: 0x8, addend: 0x0, symName: __ZNSt3__19allocatorIcE8allocateB8ne180100Em, symObjAddr: 0x7D10, symBinAddr: 0x1000091F0, symSize: 0x50 }
  - { offset: 0x12603, size: 0x8, addend: 0x0, symName: __ZNKSt3__114__copy_trivialclB8ne180100IKccLi0EEENS_4pairIPT_PT0_EES5_S5_S7_, symObjAddr: 0x7F60, symBinAddr: 0x100009440, symSize: 0x40 }
  - { offset: 0x12689, size: 0x8, addend: 0x0, symName: __ZNSt3__14pairIPKcS2_EC1B8ne180100IS2_S2_Li0EEEOT_OT0_, symObjAddr: 0x80B0, symBinAddr: 0x100009590, symSize: 0x30 }
  - { offset: 0x126E7, size: 0x8, addend: 0x0, symName: __ZNSt3__14pairIPKcS2_EC2B8ne180100IS2_S2_Li0EEEOT_OT0_, symObjAddr: 0x80E0, symBinAddr: 0x1000095C0, symSize: 0x30 }
  - { offset: 0x12745, size: 0x8, addend: 0x0, symName: __ZNSt3__118__unwrap_iter_implIPKcLb1EE8__unwrapB8ne180100ES2_, symObjAddr: 0x8110, symBinAddr: 0x1000095F0, symSize: 0x20 }
  - { offset: 0x12772, size: 0x8, addend: 0x0, symName: __ZNSt3__14pairIPKcPcEC1B8ne180100IRS2_S3_Li0EEEOT_OT0_, symObjAddr: 0x8220, symBinAddr: 0x100009700, symSize: 0x30 }
  - { offset: 0x127D0, size: 0x8, addend: 0x0, symName: __ZNSt3__14pairIPKcPcEC2B8ne180100IRS2_S3_Li0EEEOT_OT0_, symObjAddr: 0x8250, symBinAddr: 0x100009730, symSize: 0x30 }
  - { offset: 0x1282E, size: 0x8, addend: 0x0, symName: __ZNSt3__118__unwrap_iter_implIPcLb1EE8__unwrapB8ne180100ES1_, symObjAddr: 0x8280, symBinAddr: 0x100009760, symSize: 0x20 }
  - { offset: 0x12851, size: 0x8, addend: 0x0, symName: __ZNSt3__14pairIPKcPcEC1B8ne180100IS2_S3_Li0EEEOT_OT0_, symObjAddr: 0x82A0, symBinAddr: 0x100009780, symSize: 0x30 }
  - { offset: 0x128AF, size: 0x8, addend: 0x0, symName: __ZNSt3__14pairIPKcPcEC2B8ne180100IS2_S3_Li0EEEOT_OT0_, symObjAddr: 0x82D0, symBinAddr: 0x1000097B0, symSize: 0x30 }
  - { offset: 0x1290D, size: 0x8, addend: 0x0, symName: __ZNSt3__118__unwrap_iter_implIPKcLb1EE8__rewrapB8ne180100ES2_S2_, symObjAddr: 0x8340, symBinAddr: 0x100009820, symSize: 0x40 }
  - { offset: 0x1293E, size: 0x8, addend: 0x0, symName: __ZNSt3__118__unwrap_iter_implIPcLb1EE8__rewrapB8ne180100ES1_S1_, symObjAddr: 0x8380, symBinAddr: 0x100009860, symSize: 0x40 }
  - { offset: 0x1296F, size: 0x8, addend: 0x0, symName: __ZNSt3__113basic_ostreamIcNS_11char_traitsIcEEEC2B8ne180100EPNS_15basic_streambufIcS2_EE, symObjAddr: 0x8460, symBinAddr: 0x100009940, symSize: 0x50 }
  - { offset: 0x129B3, size: 0x8, addend: 0x0, symName: __ZNSt3__113basic_filebufIcNS_11char_traitsIcEEE4openERKNS_12basic_stringIcS2_NS_9allocatorIcEEEEj, symObjAddr: 0x84B0, symBinAddr: 0x100009990, symSize: 0x40 }
  - { offset: 0x129F9, size: 0x8, addend: 0x0, symName: __ZNKSt3__112basic_stringIcNS_11char_traitsIcEENS_9allocatorIcEEE5c_strB8ne180100Ev, symObjAddr: 0x84F0, symBinAddr: 0x1000099D0, symSize: 0x20 }
  - { offset: 0x12A1F, size: 0x8, addend: 0x0, symName: __ZNSt3__16vectorI5TokenNS_9allocatorIS1_EEEC2B8ne180100Ev, symObjAddr: 0x8510, symBinAddr: 0x1000099F0, symSize: 0x50 }
  - { offset: 0x12A49, size: 0x8, addend: 0x0, symName: __ZNSt3__117__compressed_pairIP5TokenNS_9allocatorIS1_EEEC1B8ne180100IDnNS_18__default_init_tagEEEOT_OT0_, symObjAddr: 0x8560, symBinAddr: 0x100009A40, symSize: 0x30 }
  - { offset: 0x12AA1, size: 0x8, addend: 0x0, symName: __ZNSt3__117__compressed_pairIP5TokenNS_9allocatorIS1_EEEC2B8ne180100IDnNS_18__default_init_tagEEEOT_OT0_, symObjAddr: 0x8590, symBinAddr: 0x100009A70, symSize: 0x40 }
  - { offset: 0x12AF9, size: 0x8, addend: 0x0, symName: __ZNSt3__122__compressed_pair_elemINS_9allocatorI5TokenEELi1ELb1EEC2B8ne180100ENS_18__default_init_tagE, symObjAddr: 0x85D0, symBinAddr: 0x100009AB0, symSize: 0x20 }
  - { offset: 0x12B2D, size: 0x8, addend: 0x0, symName: __ZNSt3__19allocatorI5TokenEC2B8ne180100Ev, symObjAddr: 0x85F0, symBinAddr: 0x100009AD0, symSize: 0x20 }
  - { offset: 0x12B57, size: 0x8, addend: 0x0, symName: __ZNSt3__116__non_trivial_ifILb1ENS_9allocatorI5TokenEEEC2B8ne180100Ev, symObjAddr: 0x8610, symBinAddr: 0x100009AF0, symSize: 0x10 }
  - { offset: 0x12B81, size: 0x8, addend: 0x0, symName: __ZNSt3__16vectorI5TokenNS_9allocatorIS1_EEE22__construct_one_at_endB8ne180100IJRKS1_EEEvDpOT_, symObjAddr: 0x8620, symBinAddr: 0x100009B00, symSize: 0x90 }
  - { offset: 0x12BCF, size: 0x8, addend: 0x0, symName: __ZNSt3__16vectorI5TokenNS_9allocatorIS1_EEE21__push_back_slow_pathIRKS1_EEPS1_OT_, symObjAddr: 0x86B0, symBinAddr: 0x100009B90, symSize: 0xE0 }
  - { offset: 0x12C2D, size: 0x8, addend: 0x0, symName: __ZNSt3__116allocator_traitsINS_9allocatorI5TokenEEE9constructB8ne180100IS2_JRKS2_EvEEvRS3_PT_DpOT0_, symObjAddr: 0x8790, symBinAddr: 0x100009C70, symSize: 0x30 }
  - { offset: 0x12C84, size: 0x8, addend: 0x0, symName: __ZNSt3__19allocatorI5TokenE9constructB8ne180100IS1_JRKS1_EEEvPT_DpOT0_, symObjAddr: 0x87C0, symBinAddr: 0x100009CA0, symSize: 0x30 }
  - { offset: 0x12CD9, size: 0x8, addend: 0x0, symName: __ZNKSt3__16vectorI5TokenNS_9allocatorIS1_EEE11__recommendB8ne180100Em, symObjAddr: 0x87F0, symBinAddr: 0x100009CD0, symSize: 0x90 }
  - { offset: 0x12D2E, size: 0x8, addend: 0x0, symName: __ZNSt3__114__split_bufferI5TokenRNS_9allocatorIS1_EEEC1EmmS4_, symObjAddr: 0x8880, symBinAddr: 0x100009D60, symSize: 0x40 }
  - { offset: 0x12D84, size: 0x8, addend: 0x0, symName: __ZNSt3__114__split_bufferI5TokenRNS_9allocatorIS1_EEED1Ev, symObjAddr: 0x89E0, symBinAddr: 0x100009EC0, symSize: 0x20 }
  - { offset: 0x12DB0, size: 0x8, addend: 0x0, symName: __ZNSt3__114__split_bufferI5TokenRNS_9allocatorIS1_EEEC2EmmS4_, symObjAddr: 0x8A80, symBinAddr: 0x100009F60, symSize: 0xC0 }
  - { offset: 0x12E24, size: 0x8, addend: 0x0, symName: __ZNSt3__117__compressed_pairIP5TokenRNS_9allocatorIS1_EEEC1B8ne180100IDnS5_EEOT_OT0_, symObjAddr: 0x8B40, symBinAddr: 0x10000A020, symSize: 0x30 }
  - { offset: 0x12E7C, size: 0x8, addend: 0x0, symName: __ZNSt3__114__split_bufferI5TokenRNS_9allocatorIS1_EEE7__allocB8ne180100Ev, symObjAddr: 0x8B70, symBinAddr: 0x10000A050, symSize: 0x20 }
  - { offset: 0x12EA2, size: 0x8, addend: 0x0, symName: __ZNSt3__114__split_bufferI5TokenRNS_9allocatorIS1_EEE9__end_capB8ne180100Ev, symObjAddr: 0x8B90, symBinAddr: 0x10000A070, symSize: 0x20 }
  - { offset: 0x12EC8, size: 0x8, addend: 0x0, symName: __ZNSt3__117__compressed_pairIP5TokenRNS_9allocatorIS1_EEEC2B8ne180100IDnS5_EEOT_OT0_, symObjAddr: 0x8BB0, symBinAddr: 0x10000A090, symSize: 0x40 }
  - { offset: 0x12F20, size: 0x8, addend: 0x0, symName: __ZNSt3__122__compressed_pair_elemIRNS_9allocatorI5TokenEELi1ELb0EEC2B8ne180100IS4_vEEOT_, symObjAddr: 0x8BF0, symBinAddr: 0x10000A0D0, symSize: 0x20 }
  - { offset: 0x12F62, size: 0x8, addend: 0x0, symName: __ZNSt3__117__compressed_pairIP5TokenRNS_9allocatorIS1_EEE6secondB8ne180100Ev, symObjAddr: 0x8C10, symBinAddr: 0x10000A0F0, symSize: 0x20 }
  - { offset: 0x12F88, size: 0x8, addend: 0x0, symName: __ZNSt3__122__compressed_pair_elemIRNS_9allocatorI5TokenEELi1ELb0EE5__getB8ne180100Ev, symObjAddr: 0x8C30, symBinAddr: 0x10000A110, symSize: 0x20 }
  - { offset: 0x12FAE, size: 0x8, addend: 0x0, symName: __ZNSt3__117__compressed_pairIP5TokenRNS_9allocatorIS1_EEE5firstB8ne180100Ev, symObjAddr: 0x8C50, symBinAddr: 0x10000A130, symSize: 0x20 }
  - { offset: 0x12FD4, size: 0x8, addend: 0x0, symName: __ZNSt3__129_AllocatorDestroyRangeReverseINS_9allocatorI5TokenEENS_16reverse_iteratorIPS2_EEEC1B8ne180100ERS3_RS6_S9_, symObjAddr: 0x8E80, symBinAddr: 0x10000A360, symSize: 0x40 }
  - { offset: 0x1302B, size: 0x8, addend: 0x0, symName: __ZNSt3__116allocator_traitsINS_9allocatorI5TokenEEE9constructB8ne180100IS2_JS2_EvEEvRS3_PT_DpOT0_, symObjAddr: 0x8EC0, symBinAddr: 0x10000A3A0, symSize: 0x30 }
  - { offset: 0x13082, size: 0x8, addend: 0x0, symName: __ZNSt3__128__exception_guard_exceptionsINS_29_AllocatorDestroyRangeReverseINS_9allocatorI5TokenEENS_16reverse_iteratorIPS3_EEEEE10__completeB8ne180100Ev, symObjAddr: 0x8EF0, symBinAddr: 0x10000A3D0, symSize: 0x20 }
  - { offset: 0x130A8, size: 0x8, addend: 0x0, symName: __ZNSt3__128__exception_guard_exceptionsINS_29_AllocatorDestroyRangeReverseINS_9allocatorI5TokenEENS_16reverse_iteratorIPS3_EEEEED1B8ne180100Ev, symObjAddr: 0x8F10, symBinAddr: 0x10000A3F0, symSize: 0x20 }
  - { offset: 0x130D2, size: 0x8, addend: 0x0, symName: __ZNSt3__128__exception_guard_exceptionsINS_29_AllocatorDestroyRangeReverseINS_9allocatorI5TokenEENS_16reverse_iteratorIPS3_EEEEEC1B8ne180100ES8_, symObjAddr: 0x8F30, symBinAddr: 0x10000A410, symSize: 0x40 }
  - { offset: 0x1310A, size: 0x8, addend: 0x0, symName: __ZNSt3__128__exception_guard_exceptionsINS_29_AllocatorDestroyRangeReverseINS_9allocatorI5TokenEENS_16reverse_iteratorIPS3_EEEEEC2B8ne180100ES8_, symObjAddr: 0x8F70, symBinAddr: 0x10000A450, symSize: 0x30 }
  - { offset: 0x13142, size: 0x8, addend: 0x0, symName: __ZNSt3__129_AllocatorDestroyRangeReverseINS_9allocatorI5TokenEENS_16reverse_iteratorIPS2_EEEC2B8ne180100ERS3_RS6_S9_, symObjAddr: 0x8FA0, symBinAddr: 0x10000A480, symSize: 0x40 }
  - { offset: 0x13199, size: 0x8, addend: 0x0, symName: __ZNSt3__19allocatorI5TokenE9constructB8ne180100IS1_JS1_EEEvPT_DpOT0_, symObjAddr: 0x8FE0, symBinAddr: 0x10000A4C0, symSize: 0x30 }
  - { offset: 0x131EF, size: 0x8, addend: 0x0, symName: __ZN5TokenC1EOS_, symObjAddr: 0x9010, symBinAddr: 0x10000A4F0, symSize: 0x30 }
  - { offset: 0x13224, size: 0x8, addend: 0x0, symName: __ZN5TokenC2EOS_, symObjAddr: 0x9040, symBinAddr: 0x10000A520, symSize: 0x60 }
  - { offset: 0x13259, size: 0x8, addend: 0x0, symName: __ZNSt3__112basic_stringIcNS_11char_traitsIcEENS_9allocatorIcEEEC1B8ne180100EOS5_, symObjAddr: 0x90A0, symBinAddr: 0x10000A580, symSize: 0x30 }
  - { offset: 0x13292, size: 0x8, addend: 0x0, symName: __ZNSt3__112basic_stringIcNS_11char_traitsIcEENS_9allocatorIcEEEC2B8ne180100EOS5_, symObjAddr: 0x90D0, symBinAddr: 0x10000A5B0, symSize: 0xD0 }
  - { offset: 0x132FB, size: 0x8, addend: 0x0, symName: __ZZNSt3__112basic_stringIcNS_11char_traitsIcEENS_9allocatorIcEEEC1B8ne180100EOS5_ENKUlRS5_E_clES7_, symObjAddr: 0x91A0, symBinAddr: 0x10000A680, symSize: 0x40 }
  - { offset: 0x13334, size: 0x8, addend: 0x0, symName: __ZNSt3__128__exception_guard_exceptionsINS_29_AllocatorDestroyRangeReverseINS_9allocatorI5TokenEENS_16reverse_iteratorIPS3_EEEEED2B8ne180100Ev, symObjAddr: 0x91E0, symBinAddr: 0x10000A6C0, symSize: 0x40 }
  - { offset: 0x1335E, size: 0x8, addend: 0x0, symName: __ZNKSt3__129_AllocatorDestroyRangeReverseINS_9allocatorI5TokenEENS_16reverse_iteratorIPS2_EEEclB8ne180100Ev, symObjAddr: 0x9220, symBinAddr: 0x10000A700, symSize: 0xF0 }
  - { offset: 0x13385, size: 0x8, addend: 0x0, symName: __ZNSt3__116reverse_iteratorINS0_IP5TokenEEEC1B8ne180100ES3_, symObjAddr: 0x9380, symBinAddr: 0x10000A860, symSize: 0x30 }
  - { offset: 0x133BD, size: 0x8, addend: 0x0, symName: __ZNSt3__116reverse_iteratorINS0_IP5TokenEEEppB8ne180100Ev, symObjAddr: 0x9420, symBinAddr: 0x10000A900, symSize: 0x30 }
  - { offset: 0x133E3, size: 0x8, addend: 0x0, symName: __ZNKSt3__116reverse_iteratorINS0_IP5TokenEEE4baseB8ne180100Ev, symObjAddr: 0x9450, symBinAddr: 0x10000A930, symSize: 0x20 }
  - { offset: 0x1340E, size: 0x8, addend: 0x0, symName: __ZNSt3__119__to_address_helperINS_16reverse_iteratorINS1_IP5TokenEEEEvE6__callB8ne180100ERKS5_, symObjAddr: 0x9470, symBinAddr: 0x10000A950, symSize: 0x40 }
  - { offset: 0x13431, size: 0x8, addend: 0x0, symName: __ZNKSt3__116reverse_iteratorINS0_IP5TokenEEEptB8ne180100Ev, symObjAddr: 0x94B0, symBinAddr: 0x10000A990, symSize: 0x20 }
  - { offset: 0x13457, size: 0x8, addend: 0x0, symName: __ZNKSt3__116reverse_iteratorINS0_IP5TokenEEEdeB8ne180100Ev, symObjAddr: 0x94D0, symBinAddr: 0x10000A9B0, symSize: 0x40 }
  - { offset: 0x1348B, size: 0x8, addend: 0x0, symName: __ZNSt3__116reverse_iteratorIP5TokenEmmB8ne180100Ev, symObjAddr: 0x9510, symBinAddr: 0x10000A9F0, symSize: 0x20 }
  - { offset: 0x134B1, size: 0x8, addend: 0x0, symName: __ZNSt3__116reverse_iteratorINS0_IP5TokenEEEC2B8ne180100ES3_, symObjAddr: 0x9530, symBinAddr: 0x10000AA10, symSize: 0x40 }
  - { offset: 0x134E9, size: 0x8, addend: 0x0, symName: __ZNSt3__114__split_bufferI5TokenRNS_9allocatorIS1_EEED2Ev, symObjAddr: 0x9570, symBinAddr: 0x10000AA50, symSize: 0x70 }
  - { offset: 0x13515, size: 0x8, addend: 0x0, symName: __ZNSt3__114__split_bufferI5TokenRNS_9allocatorIS1_EEE5clearB8ne180100Ev, symObjAddr: 0x95E0, symBinAddr: 0x10000AAC0, symSize: 0x20 }
  - { offset: 0x1353B, size: 0x8, addend: 0x0, symName: __ZNKSt3__114__split_bufferI5TokenRNS_9allocatorIS1_EEE8capacityB8ne180100Ev, symObjAddr: 0x9600, symBinAddr: 0x10000AAE0, symSize: 0x40 }
  - { offset: 0x13561, size: 0x8, addend: 0x0, symName: __ZNSt3__114__split_bufferI5TokenRNS_9allocatorIS1_EEE17__destruct_at_endB8ne180100EPS1_, symObjAddr: 0x9640, symBinAddr: 0x10000AB20, symSize: 0x30 }
  - { offset: 0x13594, size: 0x8, addend: 0x0, symName: __ZNSt3__114__split_bufferI5TokenRNS_9allocatorIS1_EEE17__destruct_at_endB8ne180100EPS1_NS_17integral_constantIbLb0EEE, symObjAddr: 0x9670, symBinAddr: 0x10000AB50, symSize: 0x80 }
  - { offset: 0x135D4, size: 0x8, addend: 0x0, symName: __ZNKSt3__114__split_bufferI5TokenRNS_9allocatorIS1_EEE9__end_capB8ne180100Ev, symObjAddr: 0x96F0, symBinAddr: 0x10000ABD0, symSize: 0x20 }
  - { offset: 0x135FA, size: 0x8, addend: 0x0, symName: __ZNKSt3__117__compressed_pairIP5TokenRNS_9allocatorIS1_EEE5firstB8ne180100Ev, symObjAddr: 0x9710, symBinAddr: 0x10000ABF0, symSize: 0x20 }
  - { offset: 0x13620, size: 0x8, addend: 0x0, symName: __ZNSt3__15stackI5TokenNS_5dequeIS1_NS_9allocatorIS1_EEEEEC2B8ne180100Ev, symObjAddr: 0x9730, symBinAddr: 0x10000AC10, symSize: 0x20 }
  - { offset: 0x1364A, size: 0x8, addend: 0x0, symName: __ZNSt3__15dequeI5TokenNS_9allocatorIS1_EEEC1B8ne180100Ev, symObjAddr: 0x9750, symBinAddr: 0x10000AC30, symSize: 0x20 }
  - { offset: 0x13674, size: 0x8, addend: 0x0, symName: __ZNSt3__15dequeI5TokenNS_9allocatorIS1_EEEC2B8ne180100Ev, symObjAddr: 0x9770, symBinAddr: 0x10000AC50, symSize: 0x60 }
  - { offset: 0x1369E, size: 0x8, addend: 0x0, symName: __ZNSt3__114__split_bufferIP5TokenNS_9allocatorIS2_EEEC1B8ne180100Ev, symObjAddr: 0x97D0, symBinAddr: 0x10000ACB0, symSize: 0x20 }
  - { offset: 0x136CD, size: 0x8, addend: 0x0, symName: __ZNSt3__117__compressed_pairImNS_9allocatorI5TokenEEEC1B8ne180100IiNS_18__default_init_tagEEEOT_OT0_, symObjAddr: 0x97F0, symBinAddr: 0x10000ACD0, symSize: 0x30 }
  - { offset: 0x13725, size: 0x8, addend: 0x0, symName: __ZNSt3__114__split_bufferIP5TokenNS_9allocatorIS2_EEEC2B8ne180100Ev, symObjAddr: 0x9820, symBinAddr: 0x10000AD00, symSize: 0x60 }
  - { offset: 0x1374F, size: 0x8, addend: 0x0, symName: __ZNSt3__117__compressed_pairIPP5TokenNS_9allocatorIS2_EEEC1B8ne180100IDnNS_18__default_init_tagEEEOT_OT0_, symObjAddr: 0x9880, symBinAddr: 0x10000AD60, symSize: 0x30 }
  - { offset: 0x137A7, size: 0x8, addend: 0x0, symName: __ZNSt3__117__compressed_pairIPP5TokenNS_9allocatorIS2_EEEC2B8ne180100IDnNS_18__default_init_tagEEEOT_OT0_, symObjAddr: 0x98B0, symBinAddr: 0x10000AD90, symSize: 0x40 }
  - { offset: 0x137FF, size: 0x8, addend: 0x0, symName: __ZNSt3__122__compressed_pair_elemIPP5TokenLi0ELb0EEC2B8ne180100IDnvEEOT_, symObjAddr: 0x98F0, symBinAddr: 0x10000ADD0, symSize: 0x20 }
  - { offset: 0x13841, size: 0x8, addend: 0x0, symName: __ZNSt3__122__compressed_pair_elemINS_9allocatorIP5TokenEELi1ELb1EEC2B8ne180100ENS_18__default_init_tagE, symObjAddr: 0x9910, symBinAddr: 0x10000ADF0, symSize: 0x20 }
  - { offset: 0x13875, size: 0x8, addend: 0x0, symName: __ZNSt3__19allocatorIP5TokenEC2B8ne180100Ev, symObjAddr: 0x9930, symBinAddr: 0x10000AE10, symSize: 0x20 }
  - { offset: 0x1389F, size: 0x8, addend: 0x0, symName: __ZNSt3__116__non_trivial_ifILb1ENS_9allocatorIP5TokenEEEC2B8ne180100Ev, symObjAddr: 0x9950, symBinAddr: 0x10000AE30, symSize: 0x10 }
  - { offset: 0x138C9, size: 0x8, addend: 0x0, symName: __ZNSt3__117__compressed_pairImNS_9allocatorI5TokenEEEC2B8ne180100IiNS_18__default_init_tagEEEOT_OT0_, symObjAddr: 0x9960, symBinAddr: 0x10000AE40, symSize: 0x40 }
  - { offset: 0x13921, size: 0x8, addend: 0x0, symName: __ZNSt3__122__compressed_pair_elemImLi0ELb0EEC2B8ne180100IivEEOT_, symObjAddr: 0x99A0, symBinAddr: 0x10000AE80, symSize: 0x20 }
  - { offset: 0x13962, size: 0x8, addend: 0x0, symName: __ZNSt3__15dequeI5TokenNS_9allocatorIS1_EEE9push_backERKS1_, symObjAddr: 0x99C0, symBinAddr: 0x10000AEA0, symSize: 0xA0 }
  - { offset: 0x139A8, size: 0x8, addend: 0x0, symName: __ZNKSt3__15dequeI5TokenNS_9allocatorIS1_EEE12__back_spareB8ne180100Ev, symObjAddr: 0x9A60, symBinAddr: 0x10000AF40, symSize: 0x50 }
  - { offset: 0x139CD, size: 0x8, addend: 0x0, symName: __ZNSt3__15dequeI5TokenNS_9allocatorIS1_EEE19__add_back_capacityEv, symObjAddr: 0x9AB0, symBinAddr: 0x10000AF90, symSize: 0x3C0 }
  - { offset: 0x13A85, size: 0x8, addend: 0x0, symName: __ZNKSt3__15dequeI5TokenNS_9allocatorIS1_EEE24__annotate_increase_backB8ne180100Em, symObjAddr: 0x9E70, symBinAddr: 0x10000B350, symSize: 0x10 }
  - { offset: 0x13ABA, size: 0x8, addend: 0x0, symName: __ZNKSt3__15dequeI5TokenNS_9allocatorIS1_EEE10__capacityB8ne180100Ev, symObjAddr: 0x9E80, symBinAddr: 0x10000B360, symSize: 0x50 }
  - { offset: 0x13AE0, size: 0x8, addend: 0x0, symName: __ZNKSt3__15dequeI5TokenNS_9allocatorIS1_EEE13__front_spareB8ne180100Ev, symObjAddr: 0x9ED0, symBinAddr: 0x10000B3B0, symSize: 0x20 }
  - { offset: 0x13B05, size: 0x8, addend: 0x0, symName: __ZNSt3__114__split_bufferIP5TokenNS_9allocatorIS2_EEE9push_backB8ne180100ERKS2_, symObjAddr: 0x9EF0, symBinAddr: 0x10000B3D0, symSize: 0x290 }
  - { offset: 0x13B7E, size: 0x8, addend: 0x0, symName: __ZNKSt3__114__split_bufferIP5TokenNS_9allocatorIS2_EEE12__back_spareB8ne180100Ev, symObjAddr: 0xA180, symBinAddr: 0x10000B660, symSize: 0x40 }
  - { offset: 0x13BA3, size: 0x8, addend: 0x0, symName: __ZNSt3__114__split_bufferIP5TokenNS_9allocatorIS2_EEE9push_backEOS2_, symObjAddr: 0xA1C0, symBinAddr: 0x10000B6A0, symSize: 0x290 }
  - { offset: 0x13C1C, size: 0x8, addend: 0x0, symName: __ZNSt3__116allocator_traitsINS_9allocatorI5TokenEEE8allocateB8ne180100ERS3_m, symObjAddr: 0xA450, symBinAddr: 0x10000B930, symSize: 0x30 }
  - { offset: 0x13C4E, size: 0x8, addend: 0x0, symName: __ZNSt3__114__split_bufferIP5TokenNS_9allocatorIS2_EEE10push_frontEOS2_, symObjAddr: 0xA480, symBinAddr: 0x10000B960, symSize: 0x270 }
  - { offset: 0x13CC7, size: 0x8, addend: 0x0, symName: __ZNKSt3__15dequeI5TokenNS_9allocatorIS1_EEE22__annotate_whole_blockB8ne180100EmNS4_22__asan_annotation_typeE, symObjAddr: 0xA6F0, symBinAddr: 0x10000BBD0, symSize: 0x20 }
  - { offset: 0x13D0B, size: 0x8, addend: 0x0, symName: __ZNSt3__114__split_bufferIP5TokenRNS_9allocatorIS2_EEEC1EmmS5_, symObjAddr: 0xA710, symBinAddr: 0x10000BBF0, symSize: 0x40 }
  - { offset: 0x13D66, size: 0x8, addend: 0x0, symName: __ZNSt3__122__allocator_destructorINS_9allocatorI5TokenEEEC1B8ne180100ERS3_m, symObjAddr: 0xA750, symBinAddr: 0x10000BC30, symSize: 0x30 }
  - { offset: 0x13E20, size: 0x8, addend: 0x0, symName: __ZNSt3__110unique_ptrIP5TokenNS_22__allocator_destructorINS_9allocatorIS1_EEEEEC1B8ne180100ILb1EvEES2_NS_16__dependent_typeINS_27__unique_ptr_deleter_sfinaeIS6_EEXT_EE20__good_rval_ref_typeE, symObjAddr: 0xA780, symBinAddr: 0x10000BC60, symSize: 0x30 }
  - { offset: 0x13E70, size: 0x8, addend: 0x0, symName: __ZNSt3__114__split_bufferIP5TokenRNS_9allocatorIS2_EEE9push_backEOS2_, symObjAddr: 0xA7B0, symBinAddr: 0x10000BC90, symSize: 0x290 }
  - { offset: 0x13EE9, size: 0x8, addend: 0x0, symName: __ZNKSt3__110unique_ptrIP5TokenNS_22__allocator_destructorINS_9allocatorIS1_EEEEE3getB8ne180100Ev, symObjAddr: 0xAA40, symBinAddr: 0x10000BF20, symSize: 0x20 }
  - { offset: 0x13F0F, size: 0x8, addend: 0x0, symName: __ZNSt3__110unique_ptrIP5TokenNS_22__allocator_destructorINS_9allocatorIS1_EEEEE7releaseB8ne180100Ev, symObjAddr: 0xAA60, symBinAddr: 0x10000BF40, symSize: 0x40 }
  - { offset: 0x13F43, size: 0x8, addend: 0x0, symName: __ZNSt3__114__split_bufferIP5TokenRNS_9allocatorIS2_EEE10push_frontERKS2_, symObjAddr: 0xAAA0, symBinAddr: 0x10000BF80, symSize: 0x270 }
  - { offset: 0x13FBC, size: 0x8, addend: 0x0, symName: __ZNSt3__114__split_bufferIP5TokenNS_9allocatorIS2_EEE9__end_capB8ne180100Ev, symObjAddr: 0xAD50, symBinAddr: 0x10000C230, symSize: 0x20 }
  - { offset: 0x13FE2, size: 0x8, addend: 0x0, symName: __ZNSt3__114__split_bufferIP5TokenRNS_9allocatorIS2_EEE9__end_capB8ne180100Ev, symObjAddr: 0xAD70, symBinAddr: 0x10000C250, symSize: 0x20 }
  - { offset: 0x14008, size: 0x8, addend: 0x0, symName: __ZNSt3__110unique_ptrIP5TokenNS_22__allocator_destructorINS_9allocatorIS1_EEEEED1B8ne180100Ev, symObjAddr: 0xAD90, symBinAddr: 0x10000C270, symSize: 0x20 }
  - { offset: 0x14032, size: 0x8, addend: 0x0, symName: __ZNSt3__114__split_bufferIP5TokenRNS_9allocatorIS2_EEED1Ev, symObjAddr: 0xADB0, symBinAddr: 0x10000C290, symSize: 0x20 }
  - { offset: 0x1405D, size: 0x8, addend: 0x0, symName: __ZNSt3__114__split_bufferIP5TokenRNS_9allocatorIS2_EEE18__construct_at_endINS_13move_iteratorIPS2_EELi0EEEvT_SB_, symObjAddr: 0xAE10, symBinAddr: 0x10000C2F0, symSize: 0x60 }
  - { offset: 0x140B0, size: 0x8, addend: 0x0, symName: __ZNSt3__113move_iteratorIPP5TokenEC1B8ne180100ES3_, symObjAddr: 0xAE70, symBinAddr: 0x10000C350, symSize: 0x30 }
  - { offset: 0x140E8, size: 0x8, addend: 0x0, symName: __ZNSt3__116allocator_traitsINS_9allocatorIP5TokenEEE9constructB8ne180100IS3_JRKS3_EvEEvRS4_PT_DpOT0_, symObjAddr: 0xAEA0, symBinAddr: 0x10000C380, symSize: 0x30 }
  - { offset: 0x14162, size: 0x8, addend: 0x0, symName: __ZNKSt3__114__move_trivialclB8ne180100IP5TokenS3_Li0EEENS_4pairIPT_PT0_EES6_S6_S8_, symObjAddr: 0xB050, symBinAddr: 0x10000C530, symSize: 0x40 }
  - { offset: 0x141CF, size: 0x8, addend: 0x0, symName: __ZNSt3__14pairIPP5TokenS3_EC1B8ne180100IRS3_S3_Li0EEEOT_OT0_, symObjAddr: 0xB240, symBinAddr: 0x10000C720, symSize: 0x30 }
  - { offset: 0x1422D, size: 0x8, addend: 0x0, symName: __ZNSt3__14pairIPP5TokenS3_EC2B8ne180100IRS3_S3_Li0EEEOT_OT0_, symObjAddr: 0xB270, symBinAddr: 0x10000C750, symSize: 0x30 }
  - { offset: 0x1428B, size: 0x8, addend: 0x0, symName: __ZNSt3__118__unwrap_iter_implIPP5TokenLb1EE8__unwrapB8ne180100ES3_, symObjAddr: 0xB2A0, symBinAddr: 0x10000C780, symSize: 0x20 }
  - { offset: 0x142AE, size: 0x8, addend: 0x0, symName: __ZNSt3__14pairIPP5TokenS3_EC1B8ne180100IS3_S3_Li0EEEOT_OT0_, symObjAddr: 0xB2C0, symBinAddr: 0x10000C7A0, symSize: 0x30 }
  - { offset: 0x1430C, size: 0x8, addend: 0x0, symName: __ZNSt3__14pairIPP5TokenS3_EC2B8ne180100IS3_S3_Li0EEEOT_OT0_, symObjAddr: 0xB2F0, symBinAddr: 0x10000C7D0, symSize: 0x30 }
  - { offset: 0x1436A, size: 0x8, addend: 0x0, symName: __ZNSt3__118__unwrap_iter_implIPP5TokenLb1EE8__rewrapB8ne180100ES3_S3_, symObjAddr: 0xB320, symBinAddr: 0x10000C800, symSize: 0x50 }
  - { offset: 0x1439A, size: 0x8, addend: 0x0, symName: __ZNSt3__114__split_bufferIP5TokenRNS_9allocatorIS2_EEE28__construct_at_end_with_sizeINS_13move_iteratorIPS2_EEEEvT_m, symObjAddr: 0xB370, symBinAddr: 0x10000C850, symSize: 0xE0 }
  - { offset: 0x14400, size: 0x8, addend: 0x0, symName: __ZNSt3__114__split_bufferIP5TokenRNS_9allocatorIS2_EEE21_ConstructTransactionC1B8ne180100EPPS2_m, symObjAddr: 0xB490, symBinAddr: 0x10000C970, symSize: 0x30 }
  - { offset: 0x14446, size: 0x8, addend: 0x0, symName: __ZNSt3__116allocator_traitsINS_9allocatorIP5TokenEEE9constructB8ne180100IS3_JS3_EvEEvRS4_PT_DpOT0_, symObjAddr: 0xB4C0, symBinAddr: 0x10000C9A0, symSize: 0x30 }
  - { offset: 0x1449D, size: 0x8, addend: 0x0, symName: __ZNSt3__114__split_bufferIP5TokenRNS_9allocatorIS2_EEE7__allocB8ne180100Ev, symObjAddr: 0xB4F0, symBinAddr: 0x10000C9D0, symSize: 0x20 }
  - { offset: 0x144C3, size: 0x8, addend: 0x0, symName: __ZNKSt3__113move_iteratorIPP5TokenEdeB8ne180100Ev, symObjAddr: 0xB510, symBinAddr: 0x10000C9F0, symSize: 0x20 }
  - { offset: 0x144E9, size: 0x8, addend: 0x0, symName: __ZNSt3__113move_iteratorIPP5TokenEppB8ne180100Ev, symObjAddr: 0xB530, symBinAddr: 0x10000CA10, symSize: 0x20 }
  - { offset: 0x1450F, size: 0x8, addend: 0x0, symName: __ZNSt3__114__split_bufferIP5TokenRNS_9allocatorIS2_EEE21_ConstructTransactionD1B8ne180100Ev, symObjAddr: 0xB550, symBinAddr: 0x10000CA30, symSize: 0x20 }
  - { offset: 0x14539, size: 0x8, addend: 0x0, symName: __ZNSt3__114__split_bufferIP5TokenRNS_9allocatorIS2_EEE21_ConstructTransactionC2B8ne180100EPPS2_m, symObjAddr: 0xB570, symBinAddr: 0x10000CA50, symSize: 0x40 }
  - { offset: 0x1457F, size: 0x8, addend: 0x0, symName: __ZNSt3__19allocatorIP5TokenE9constructB8ne180100IS2_JS2_EEEvPT_DpOT0_, symObjAddr: 0xB5B0, symBinAddr: 0x10000CA90, symSize: 0x20 }
  - { offset: 0x145D5, size: 0x8, addend: 0x0, symName: __ZNSt3__117__compressed_pairIPP5TokenRNS_9allocatorIS2_EEE6secondB8ne180100Ev, symObjAddr: 0xB5D0, symBinAddr: 0x10000CAB0, symSize: 0x20 }
  - { offset: 0x145FB, size: 0x8, addend: 0x0, symName: __ZNSt3__122__compressed_pair_elemIRNS_9allocatorIP5TokenEELi1ELb0EE5__getB8ne180100Ev, symObjAddr: 0xB5F0, symBinAddr: 0x10000CAD0, symSize: 0x20 }
  - { offset: 0x14621, size: 0x8, addend: 0x0, symName: __ZNSt3__114__split_bufferIP5TokenRNS_9allocatorIS2_EEE21_ConstructTransactionD2B8ne180100Ev, symObjAddr: 0xB610, symBinAddr: 0x10000CAF0, symSize: 0x20 }
  - { offset: 0x1464B, size: 0x8, addend: 0x0, symName: __ZNKSt3__113move_iteratorIPP5TokenE4baseB8ne180100Ev, symObjAddr: 0xB6A0, symBinAddr: 0x10000CB80, symSize: 0x20 }
  - { offset: 0x14671, size: 0x8, addend: 0x0, symName: __ZNSt3__113move_iteratorIPP5TokenEC2B8ne180100ES3_, symObjAddr: 0xB6C0, symBinAddr: 0x10000CBA0, symSize: 0x20 }
  - { offset: 0x146A9, size: 0x8, addend: 0x0, symName: __ZNSt3__19allocatorIP5TokenE9constructB8ne180100IS2_JRKS2_EEEvPT_DpOT0_, symObjAddr: 0xB6E0, symBinAddr: 0x10000CBC0, symSize: 0x20 }
  - { offset: 0x14709, size: 0x8, addend: 0x0, symName: __ZNKSt3__123__move_backward_trivialclB8ne180100IP5TokenS3_Li0EEENS_4pairIPT_PT0_EES6_S6_S8_, symObjAddr: 0xB870, symBinAddr: 0x10000CD50, symSize: 0x40 }
  - { offset: 0x14771, size: 0x8, addend: 0x0, symName: __ZNSt3__14pairIPP5TokenS3_EC1B8ne180100IRS3_S6_Li0EEEOT_OT0_, symObjAddr: 0xB950, symBinAddr: 0x10000CE30, symSize: 0x30 }
  - { offset: 0x147CF, size: 0x8, addend: 0x0, symName: __ZNSt3__14pairIPP5TokenS3_EC2B8ne180100IRS3_S6_Li0EEEOT_OT0_, symObjAddr: 0xB980, symBinAddr: 0x10000CE60, symSize: 0x30 }
  - { offset: 0x1482D, size: 0x8, addend: 0x0, symName: __ZNSt3__114__split_bufferIP5TokenRNS_9allocatorIS2_EEEC2EmmS5_, symObjAddr: 0xB9B0, symBinAddr: 0x10000CE90, symSize: 0xD0 }
  - { offset: 0x148A1, size: 0x8, addend: 0x0, symName: __ZNSt3__117__compressed_pairIPP5TokenRNS_9allocatorIS2_EEEC1B8ne180100IDnS6_EEOT_OT0_, symObjAddr: 0xBA80, symBinAddr: 0x10000CF60, symSize: 0x30 }
  - { offset: 0x148F9, size: 0x8, addend: 0x0, symName: __ZNSt3__117__compressed_pairIPP5TokenRNS_9allocatorIS2_EEEC2B8ne180100IDnS6_EEOT_OT0_, symObjAddr: 0xBAF0, symBinAddr: 0x10000CFD0, symSize: 0x40 }
  - { offset: 0x14951, size: 0x8, addend: 0x0, symName: __ZNSt3__122__compressed_pair_elemIRNS_9allocatorIP5TokenEELi1ELb0EEC2B8ne180100IS5_vEEOT_, symObjAddr: 0xBB30, symBinAddr: 0x10000D010, symSize: 0x20 }
  - { offset: 0x14993, size: 0x8, addend: 0x0, symName: __ZNSt3__19allocatorIP5TokenE8allocateB8ne180100Em, symObjAddr: 0xBB50, symBinAddr: 0x10000D030, symSize: 0x50 }
  - { offset: 0x149D1, size: 0x8, addend: 0x0, symName: __ZNSt3__116allocator_traitsINS_9allocatorIP5TokenEEE8max_sizeB8ne180100IS4_vEEmRKS4_, symObjAddr: 0xBBA0, symBinAddr: 0x10000D080, symSize: 0x20 }
  - { offset: 0x149FF, size: 0x8, addend: 0x0, symName: __ZNKSt3__19allocatorIP5TokenE8max_sizeB8ne180100Ev, symObjAddr: 0xBBC0, symBinAddr: 0x10000D0A0, symSize: 0x20 }
  - { offset: 0x14A25, size: 0x8, addend: 0x0, symName: __ZNSt3__122__allocator_destructorINS_9allocatorI5TokenEEEC2B8ne180100ERS3_m, symObjAddr: 0xBBE0, symBinAddr: 0x10000D0C0, symSize: 0x30 }
  - { offset: 0x14A6B, size: 0x8, addend: 0x0, symName: __ZNSt3__110unique_ptrIP5TokenNS_22__allocator_destructorINS_9allocatorIS1_EEEEEC2B8ne180100ILb1EvEES2_NS_16__dependent_typeINS_27__unique_ptr_deleter_sfinaeIS6_EEXT_EE20__good_rval_ref_typeE, symObjAddr: 0xBC10, symBinAddr: 0x10000D0F0, symSize: 0x40 }
  - { offset: 0x14ABC, size: 0x8, addend: 0x0, symName: __ZNSt3__117__compressed_pairIP5TokenNS_22__allocator_destructorINS_9allocatorIS1_EEEEEC1B8ne180100IRS2_S6_EEOT_OT0_, symObjAddr: 0xBC50, symBinAddr: 0x10000D130, symSize: 0x30 }
  - { offset: 0x14B14, size: 0x8, addend: 0x0, symName: __ZNSt3__117__compressed_pairIP5TokenNS_22__allocator_destructorINS_9allocatorIS1_EEEEEC2B8ne180100IRS2_S6_EEOT_OT0_, symObjAddr: 0xBC80, symBinAddr: 0x10000D160, symSize: 0x40 }
  - { offset: 0x14B6C, size: 0x8, addend: 0x0, symName: __ZNSt3__122__compressed_pair_elemIP5TokenLi0ELb0EEC2B8ne180100IRS2_vEEOT_, symObjAddr: 0xBCC0, symBinAddr: 0x10000D1A0, symSize: 0x20 }
  - { offset: 0x14BAE, size: 0x8, addend: 0x0, symName: __ZNSt3__122__compressed_pair_elemINS_22__allocator_destructorINS_9allocatorI5TokenEEEELi1ELb0EEC2B8ne180100IS5_vEEOT_, symObjAddr: 0xBCE0, symBinAddr: 0x10000D1C0, symSize: 0x30 }
  - { offset: 0x14BF0, size: 0x8, addend: 0x0, symName: __ZNKSt3__117__compressed_pairIP5TokenNS_22__allocator_destructorINS_9allocatorIS1_EEEEE5firstB8ne180100Ev, symObjAddr: 0xBD10, symBinAddr: 0x10000D1F0, symSize: 0x20 }
  - { offset: 0x14C16, size: 0x8, addend: 0x0, symName: __ZNSt3__117__compressed_pairIP5TokenNS_22__allocator_destructorINS_9allocatorIS1_EEEEE5firstB8ne180100Ev, symObjAddr: 0xBD30, symBinAddr: 0x10000D210, symSize: 0x20 }
  - { offset: 0x14C3C, size: 0x8, addend: 0x0, symName: __ZNSt3__117__compressed_pairIPP5TokenNS_9allocatorIS2_EEE5firstB8ne180100Ev, symObjAddr: 0xBD50, symBinAddr: 0x10000D230, symSize: 0x20 }
  - { offset: 0x14C62, size: 0x8, addend: 0x0, symName: __ZNSt3__122__compressed_pair_elemIPP5TokenLi0ELb0EE5__getB8ne180100Ev, symObjAddr: 0xBD70, symBinAddr: 0x10000D250, symSize: 0x10 }
  - { offset: 0x14C88, size: 0x8, addend: 0x0, symName: __ZNSt3__117__compressed_pairIPP5TokenRNS_9allocatorIS2_EEE5firstB8ne180100Ev, symObjAddr: 0xBD80, symBinAddr: 0x10000D260, symSize: 0x20 }
  - { offset: 0x14CAE, size: 0x8, addend: 0x0, symName: __ZNSt3__110unique_ptrIP5TokenNS_22__allocator_destructorINS_9allocatorIS1_EEEEED2B8ne180100Ev, symObjAddr: 0xBDA0, symBinAddr: 0x10000D280, symSize: 0x20 }
  - { offset: 0x14CD8, size: 0x8, addend: 0x0, symName: __ZNSt3__110unique_ptrIP5TokenNS_22__allocator_destructorINS_9allocatorIS1_EEEEE5resetB8ne180100ES2_, symObjAddr: 0xBDC0, symBinAddr: 0x10000D2A0, symSize: 0x70 }
  - { offset: 0x14D1C, size: 0x8, addend: 0x0, symName: __ZNSt3__117__compressed_pairIP5TokenNS_22__allocator_destructorINS_9allocatorIS1_EEEEE6secondB8ne180100Ev, symObjAddr: 0xBE30, symBinAddr: 0x10000D310, symSize: 0x20 }
  - { offset: 0x14D42, size: 0x8, addend: 0x0, symName: __ZNSt3__122__allocator_destructorINS_9allocatorI5TokenEEEclB8ne180100EPS2_, symObjAddr: 0xBE50, symBinAddr: 0x10000D330, symSize: 0x30 }
  - { offset: 0x14D76, size: 0x8, addend: 0x0, symName: __ZNSt3__122__compressed_pair_elemINS_22__allocator_destructorINS_9allocatorI5TokenEEEELi1ELb0EE5__getB8ne180100Ev, symObjAddr: 0xBE80, symBinAddr: 0x10000D360, symSize: 0x10 }
  - { offset: 0x14D9C, size: 0x8, addend: 0x0, symName: __ZNSt3__114__split_bufferIP5TokenRNS_9allocatorIS2_EEED2Ev, symObjAddr: 0xBE90, symBinAddr: 0x10000D370, symSize: 0x70 }
  - { offset: 0x14DC8, size: 0x8, addend: 0x0, symName: __ZNSt3__114__split_bufferIP5TokenRNS_9allocatorIS2_EEE5clearB8ne180100Ev, symObjAddr: 0xBF00, symBinAddr: 0x10000D3E0, symSize: 0x20 }
  - { offset: 0x14DEE, size: 0x8, addend: 0x0, symName: __ZNKSt3__114__split_bufferIP5TokenRNS_9allocatorIS2_EEE8capacityB8ne180100Ev, symObjAddr: 0xBF20, symBinAddr: 0x10000D400, symSize: 0x30 }
  - { offset: 0x14E14, size: 0x8, addend: 0x0, symName: __ZNSt3__114__split_bufferIP5TokenRNS_9allocatorIS2_EEE17__destruct_at_endB8ne180100EPS2_, symObjAddr: 0xBF50, symBinAddr: 0x10000D430, symSize: 0x30 }
  - { offset: 0x14E47, size: 0x8, addend: 0x0, symName: __ZNSt3__114__split_bufferIP5TokenRNS_9allocatorIS2_EEE17__destruct_at_endB8ne180100EPS2_NS_17integral_constantIbLb0EEE, symObjAddr: 0xBF80, symBinAddr: 0x10000D460, symSize: 0x80 }
  - { offset: 0x14E87, size: 0x8, addend: 0x0, symName: __ZNKSt3__114__split_bufferIP5TokenRNS_9allocatorIS2_EEE9__end_capB8ne180100Ev, symObjAddr: 0xC000, symBinAddr: 0x10000D4E0, symSize: 0x20 }
  - { offset: 0x14EAD, size: 0x8, addend: 0x0, symName: __ZNKSt3__117__compressed_pairIPP5TokenRNS_9allocatorIS2_EEE5firstB8ne180100Ev, symObjAddr: 0xC020, symBinAddr: 0x10000D500, symSize: 0x20 }
  - { offset: 0x14ED2, size: 0x8, addend: 0x0, symName: __ZNSt3__15dequeI5TokenNS_9allocatorIS1_EEE4backEv, symObjAddr: 0xC040, symBinAddr: 0x10000D520, symSize: 0x70 }
  - { offset: 0x14F08, size: 0x8, addend: 0x0, symName: __ZNSt3__15dequeI5TokenNS_9allocatorIS1_EEE8pop_backEv, symObjAddr: 0xC0B0, symBinAddr: 0x10000D590, symSize: 0xE0 }
  - { offset: 0x14F6C, size: 0x8, addend: 0x0, symName: __ZNKSt3__15dequeI5TokenNS_9allocatorIS1_EEE22__annotate_shrink_backB8ne180100Emm, symObjAddr: 0xC190, symBinAddr: 0x10000D670, symSize: 0x20 }
  - { offset: 0x14FB0, size: 0x8, addend: 0x0, symName: __ZNSt3__15dequeI5TokenNS_9allocatorIS1_EEE25__maybe_remove_back_spareB8ne180100Eb, symObjAddr: 0xC1B0, symBinAddr: 0x10000D690, symSize: 0xB0 }
  - { offset: 0x14FE5, size: 0x8, addend: 0x0, symName: __ZNKSt3__15dequeI5TokenNS_9allocatorIS1_EEE19__back_spare_blocksB8ne180100Ev, symObjAddr: 0xC260, symBinAddr: 0x10000D740, symSize: 0x30 }
  - { offset: 0x1500B, size: 0x8, addend: 0x0, symName: __ZNSt3__114__split_bufferIP5TokenNS_9allocatorIS2_EEE4backB8ne180100Ev, symObjAddr: 0xC290, symBinAddr: 0x10000D770, symSize: 0x20 }
  - { offset: 0x15031, size: 0x8, addend: 0x0, symName: __ZNSt3__114__split_bufferIP5TokenNS_9allocatorIS2_EEE8pop_backB8ne180100Ev, symObjAddr: 0xC2B0, symBinAddr: 0x10000D790, symSize: 0x30 }
  - { offset: 0x15057, size: 0x8, addend: 0x0, symName: __ZNKSt3__15dequeI5TokenNS_9allocatorIS1_EEE5emptyB8ne180100Ev, symObjAddr: 0xC2E0, symBinAddr: 0x10000D7C0, symSize: 0x30 }
  - { offset: 0x1507D, size: 0x8, addend: 0x0, symName: __ZNSt3__112basic_stringIcNS_11char_traitsIcEENS_9allocatorIcEEE6appendB8ne180100ERKS5_, symObjAddr: 0xC310, symBinAddr: 0x10000D7F0, symSize: 0x50 }
  - { offset: 0x150B1, size: 0x8, addend: 0x0, symName: __ZNKSt3__18ios_base3eofB8ne180100Ev, symObjAddr: 0xC360, symBinAddr: 0x10000D840, symSize: 0x20 }
  - { offset: 0x150D9, size: 0x8, addend: 0x0, symName: __ZNSt3__111char_traitsIcE12to_char_typeB8ne180100Ei, symObjAddr: 0xC380, symBinAddr: 0x10000D860, symSize: 0xF }
  - { offset: 0x1A878, size: 0x8, addend: 0x0, symName: __ZN5TokenC2Eii, symObjAddr: 0x0, symBinAddr: 0x10000D870, symSize: 0xD0 }
  - { offset: 0x1A8C4, size: 0x8, addend: 0x0, symName: __ZN5TokenC1Eii, symObjAddr: 0x100, symBinAddr: 0x10000D940, symSize: 0x30 }
  - { offset: 0x1A90B, size: 0x8, addend: 0x0, symName: __ZN5Token12isIdentifierEv, symObjAddr: 0x130, symBinAddr: 0x10000D970, symSize: 0x10 }
  - { offset: 0x1A933, size: 0x8, addend: 0x0, symName: __ZN5Token13isDoubleQuoteEv, symObjAddr: 0x140, symBinAddr: 0x10000D980, symSize: 0x20 }
  - { offset: 0x1A95B, size: 0x8, addend: 0x0, symName: __ZN5Token13isSingleQuoteEv, symObjAddr: 0x160, symBinAddr: 0x10000D9A0, symSize: 0x20 }
  - { offset: 0x1A983, size: 0x8, addend: 0x0, symName: __ZN5Token11isSemicolonEv, symObjAddr: 0x180, symBinAddr: 0x10000D9C0, symSize: 0x20 }
  - { offset: 0x1A9AB, size: 0x8, addend: 0x0, symName: __ZN5Token7isCommaEv, symObjAddr: 0x1A0, symBinAddr: 0x10000D9E0, symSize: 0x20 }
  - { offset: 0x1A9D3, size: 0x8, addend: 0x0, symName: __ZN5Token5isEOFEv, symObjAddr: 0x1C0, symBinAddr: 0x10000DA00, symSize: 0x20 }
  - { offset: 0x1A9FB, size: 0x8, addend: 0x0, symName: __ZN5Token8isLParenEv, symObjAddr: 0x1E0, symBinAddr: 0x10000DA20, symSize: 0x20 }
  - { offset: 0x1AA23, size: 0x8, addend: 0x0, symName: __ZN5Token8isRParenEv, symObjAddr: 0x200, symBinAddr: 0x10000DA40, symSize: 0x20 }
  - { offset: 0x1AA4B, size: 0x8, addend: 0x0, symName: __ZN5Token8isLBraceEv, symObjAddr: 0x220, symBinAddr: 0x10000DA60, symSize: 0x20 }
  - { offset: 0x1AA73, size: 0x8, addend: 0x0, symName: __ZN5Token8isRBraceEv, symObjAddr: 0x240, symBinAddr: 0x10000DA80, symSize: 0x20 }
  - { offset: 0x1AA9B, size: 0x8, addend: 0x0, symName: __ZN5Token10isLBracketEv, symObjAddr: 0x260, symBinAddr: 0x10000DAA0, symSize: 0x20 }
  - { offset: 0x1AAC3, size: 0x8, addend: 0x0, symName: __ZN5Token10isRBracketEv, symObjAddr: 0x280, symBinAddr: 0x10000DAC0, symSize: 0x20 }
  - { offset: 0x1AAEB, size: 0x8, addend: 0x0, symName: __ZN5Token20isAssignmentOperatorEv, symObjAddr: 0x2A0, symBinAddr: 0x10000DAE0, symSize: 0x20 }
  - { offset: 0x1AB13, size: 0x8, addend: 0x0, symName: __ZN5Token8isModuloEv, symObjAddr: 0x2C0, symBinAddr: 0x10000DB00, symSize: 0x20 }
  - { offset: 0x1AB3B, size: 0x8, addend: 0x0, symName: __ZN5Token6isPlusEv, symObjAddr: 0x2E0, symBinAddr: 0x10000DB20, symSize: 0x20 }
  - { offset: 0x1AB63, size: 0x8, addend: 0x0, symName: __ZN5Token7isMinusEv, symObjAddr: 0x300, symBinAddr: 0x10000DB40, symSize: 0x20 }
  - { offset: 0x1AB8B, size: 0x8, addend: 0x0, symName: __ZN5Token10isAsteriskEv, symObjAddr: 0x320, symBinAddr: 0x10000DB60, symSize: 0x20 }
  - { offset: 0x1ABB3, size: 0x8, addend: 0x0, symName: __ZN5Token8isDivideEv, symObjAddr: 0x340, symBinAddr: 0x10000DB80, symSize: 0x20 }
  - { offset: 0x1ABDB, size: 0x8, addend: 0x0, symName: __ZN5Token7isCarotEv, symObjAddr: 0x360, symBinAddr: 0x10000DBA0, symSize: 0x20 }
  - { offset: 0x1AC03, size: 0x8, addend: 0x0, symName: __ZN5Token5isIntEv, symObjAddr: 0x380, symBinAddr: 0x10000DBC0, symSize: 0x20 }
  - { offset: 0x1AC2B, size: 0x8, addend: 0x0, symName: __ZN5Token8isDoubleEv, symObjAddr: 0x3A0, symBinAddr: 0x10000DBE0, symSize: 0x20 }
  - { offset: 0x1AC53, size: 0x8, addend: 0x0, symName: __ZN5Token6isCharEv, symObjAddr: 0x3C0, symBinAddr: 0x10000DC00, symSize: 0x20 }
  - { offset: 0x1AC7B, size: 0x8, addend: 0x0, symName: __ZN5Token9isEscCharEv, symObjAddr: 0x3E0, symBinAddr: 0x10000DC20, symSize: 0x20 }
  - { offset: 0x1ACA3, size: 0x8, addend: 0x0, symName: __ZN5Token8isStringEv, symObjAddr: 0x400, symBinAddr: 0x10000DC40, symSize: 0x20 }
  - { offset: 0x1ACCB, size: 0x8, addend: 0x0, symName: __ZN5Token7isBoolEEv, symObjAddr: 0x420, symBinAddr: 0x10000DC60, symSize: 0x20 }
  - { offset: 0x1ACF3, size: 0x8, addend: 0x0, symName: __ZN5Token9isBoolNotEv, symObjAddr: 0x440, symBinAddr: 0x10000DC80, symSize: 0x20 }
  - { offset: 0x1AD1B, size: 0x8, addend: 0x0, symName: __ZN5Token8isBoolNEEv, symObjAddr: 0x460, symBinAddr: 0x10000DCA0, symSize: 0x20 }
  - { offset: 0x1AD43, size: 0x8, addend: 0x0, symName: __ZN5Token8isBoolGTEv, symObjAddr: 0x480, symBinAddr: 0x10000DCC0, symSize: 0x20 }
  - { offset: 0x1AD6B, size: 0x8, addend: 0x0, symName: __ZN5Token8isBoolLTEv, symObjAddr: 0x4A0, symBinAddr: 0x10000DCE0, symSize: 0x20 }
  - { offset: 0x1AD93, size: 0x8, addend: 0x0, symName: __ZN5Token9isBoolGTEEv, symObjAddr: 0x4C0, symBinAddr: 0x10000DD00, symSize: 0x20 }
  - { offset: 0x1ADBB, size: 0x8, addend: 0x0, symName: __ZN5Token9isBoolLTEEv, symObjAddr: 0x4E0, symBinAddr: 0x10000DD20, symSize: 0x20 }
  - { offset: 0x1ADE3, size: 0x8, addend: 0x0, symName: __ZN5Token9isBoolAndEv, symObjAddr: 0x500, symBinAddr: 0x10000DD40, symSize: 0x20 }
  - { offset: 0x1AE0B, size: 0x8, addend: 0x0, symName: __ZN5Token8isBoolOrEv, symObjAddr: 0x520, symBinAddr: 0x10000DD60, symSize: 0x20 }
  - { offset: 0x1AE33, size: 0x8, addend: 0x0, symName: __ZN5Token10isBoolTrueEv, symObjAddr: 0x540, symBinAddr: 0x10000DD80, symSize: 0x20 }
  - { offset: 0x1AE5B, size: 0x8, addend: 0x0, symName: __ZN5Token11isBoolFalseEv, symObjAddr: 0x560, symBinAddr: 0x10000DDA0, symSize: 0x20 }
  - { offset: 0x1AE83, size: 0x8, addend: 0x0, symName: __ZN5Token13setIdentifierENSt3__112basic_stringIcNS0_11char_traitsIcEENS0_9allocatorIcEEEE, symObjAddr: 0x580, symBinAddr: 0x10000DDC0, symSize: 0x30 }
  - { offset: 0x1AEBA, size: 0x8, addend: 0x0, symName: __ZN5Token14setDoubleQuoteEv, symObjAddr: 0x5B0, symBinAddr: 0x10000DDF0, symSize: 0x20 }
  - { offset: 0x1AEE2, size: 0x8, addend: 0x0, symName: __ZN5Token14setSingleQuoteEv, symObjAddr: 0x5D0, symBinAddr: 0x10000DE10, symSize: 0x20 }
  - { offset: 0x1AF0A, size: 0x8, addend: 0x0, symName: __ZN5Token12setSemicolonEv, symObjAddr: 0x5F0, symBinAddr: 0x10000DE30, symSize: 0x20 }
  - { offset: 0x1AF32, size: 0x8, addend: 0x0, symName: __ZN5Token8setCommaEv, symObjAddr: 0x610, symBinAddr: 0x10000DE50, symSize: 0x20 }
  - { offset: 0x1AF5A, size: 0x8, addend: 0x0, symName: __ZN5Token12setEndOfFileEv, symObjAddr: 0x630, symBinAddr: 0x10000DE70, symSize: 0x20 }
  - { offset: 0x1AF82, size: 0x8, addend: 0x0, symName: __ZN5Token9setLParenEv, symObjAddr: 0x650, symBinAddr: 0x10000DE90, symSize: 0x20 }
  - { offset: 0x1AFAA, size: 0x8, addend: 0x0, symName: __ZN5Token9setRParenEv, symObjAddr: 0x670, symBinAddr: 0x10000DEB0, symSize: 0x20 }
  - { offset: 0x1AFD2, size: 0x8, addend: 0x0, symName: __ZN5Token9setLBraceEv, symObjAddr: 0x690, symBinAddr: 0x10000DED0, symSize: 0x20 }
  - { offset: 0x1AFFA, size: 0x8, addend: 0x0, symName: __ZN5Token9setRBraceEv, symObjAddr: 0x6B0, symBinAddr: 0x10000DEF0, symSize: 0x20 }
  - { offset: 0x1B022, size: 0x8, addend: 0x0, symName: __ZN5Token11setLBracketEv, symObjAddr: 0x6D0, symBinAddr: 0x10000DF10, symSize: 0x20 }
  - { offset: 0x1B04A, size: 0x8, addend: 0x0, symName: __ZN5Token11setRBracketEv, symObjAddr: 0x6F0, symBinAddr: 0x10000DF30, symSize: 0x20 }
  - { offset: 0x1B072, size: 0x8, addend: 0x0, symName: __ZN5Token21setAssignmentOperatorEv, symObjAddr: 0x710, symBinAddr: 0x10000DF50, symSize: 0x20 }
  - { offset: 0x1B09A, size: 0x8, addend: 0x0, symName: __ZN5Token9setModuloEv, symObjAddr: 0x730, symBinAddr: 0x10000DF70, symSize: 0x20 }
  - { offset: 0x1B0C2, size: 0x8, addend: 0x0, symName: __ZN5Token7setPlusEv, symObjAddr: 0x750, symBinAddr: 0x10000DF90, symSize: 0x20 }
  - { offset: 0x1B0EA, size: 0x8, addend: 0x0, symName: __ZN5Token8setMinusEv, symObjAddr: 0x770, symBinAddr: 0x10000DFB0, symSize: 0x20 }
  - { offset: 0x1B112, size: 0x8, addend: 0x0, symName: __ZN5Token11setAsteriskEv, symObjAddr: 0x790, symBinAddr: 0x10000DFD0, symSize: 0x20 }
  - { offset: 0x1B13A, size: 0x8, addend: 0x0, symName: __ZN5Token9setDivideEv, symObjAddr: 0x7B0, symBinAddr: 0x10000DFF0, symSize: 0x20 }
  - { offset: 0x1B162, size: 0x8, addend: 0x0, symName: __ZN5Token8setCarotEv, symObjAddr: 0x7D0, symBinAddr: 0x10000E010, symSize: 0x20 }
  - { offset: 0x1B18A, size: 0x8, addend: 0x0, symName: __ZN5Token6setIntENSt3__112basic_stringIcNS0_11char_traitsIcEENS0_9allocatorIcEEEE, symObjAddr: 0x7F0, symBinAddr: 0x10000E030, symSize: 0x30 }
  - { offset: 0x1B1C1, size: 0x8, addend: 0x0, symName: __ZN5Token9setDoubleENSt3__112basic_stringIcNS0_11char_traitsIcEENS0_9allocatorIcEEEE, symObjAddr: 0x820, symBinAddr: 0x10000E060, symSize: 0x30 }
  - { offset: 0x1B1F8, size: 0x8, addend: 0x0, symName: __ZN5Token7setCharENSt3__112basic_stringIcNS0_11char_traitsIcEENS0_9allocatorIcEEEE, symObjAddr: 0x850, symBinAddr: 0x10000E090, symSize: 0x30 }
  - { offset: 0x1B22F, size: 0x8, addend: 0x0, symName: __ZN5Token10setEscCharENSt3__112basic_stringIcNS0_11char_traitsIcEENS0_9allocatorIcEEEE, symObjAddr: 0x880, symBinAddr: 0x10000E0C0, symSize: 0x30 }
  - { offset: 0x1B266, size: 0x8, addend: 0x0, symName: __ZN5Token9setStringENSt3__112basic_stringIcNS0_11char_traitsIcEENS0_9allocatorIcEEEE, symObjAddr: 0x8B0, symBinAddr: 0x10000E0F0, symSize: 0x30 }
  - { offset: 0x1B29D, size: 0x8, addend: 0x0, symName: __ZN5Token8setBoolEEv, symObjAddr: 0x8E0, symBinAddr: 0x10000E120, symSize: 0x20 }
  - { offset: 0x1B2C5, size: 0x8, addend: 0x0, symName: __ZN5Token10setBoolNotEv, symObjAddr: 0x900, symBinAddr: 0x10000E140, symSize: 0x20 }
  - { offset: 0x1B2ED, size: 0x8, addend: 0x0, symName: __ZN5Token9setBoolNEEv, symObjAddr: 0x920, symBinAddr: 0x10000E160, symSize: 0x20 }
  - { offset: 0x1B315, size: 0x8, addend: 0x0, symName: __ZN5Token9setBoolGTEv, symObjAddr: 0x940, symBinAddr: 0x10000E180, symSize: 0x20 }
  - { offset: 0x1B33D, size: 0x8, addend: 0x0, symName: __ZN5Token9setBoolLTEv, symObjAddr: 0x960, symBinAddr: 0x10000E1A0, symSize: 0x20 }
  - { offset: 0x1B365, size: 0x8, addend: 0x0, symName: __ZN5Token10setBoolGTEEv, symObjAddr: 0x980, symBinAddr: 0x10000E1C0, symSize: 0x20 }
  - { offset: 0x1B38D, size: 0x8, addend: 0x0, symName: __ZN5Token10setBoolLTEEv, symObjAddr: 0x9A0, symBinAddr: 0x10000E1E0, symSize: 0x20 }
  - { offset: 0x1B3B5, size: 0x8, addend: 0x0, symName: __ZN5Token10setBoolAndEv, symObjAddr: 0x9C0, symBinAddr: 0x10000E200, symSize: 0x20 }
  - { offset: 0x1B3DD, size: 0x8, addend: 0x0, symName: __ZN5Token9setBoolOrEv, symObjAddr: 0x9E0, symBinAddr: 0x10000E220, symSize: 0x20 }
  - { offset: 0x1B405, size: 0x8, addend: 0x0, symName: __ZN5Token11setBoolTrueEv, symObjAddr: 0xA00, symBinAddr: 0x10000E240, symSize: 0x20 }
  - { offset: 0x1B42D, size: 0x8, addend: 0x0, symName: __ZN5Token12setBoolFalseEv, symObjAddr: 0xA20, symBinAddr: 0x10000E260, symSize: 0x20 }
  - { offset: 0x1B455, size: 0x8, addend: 0x0, symName: __ZN5Token14getTokenStringEv, symObjAddr: 0xA40, symBinAddr: 0x10000E280, symSize: 0x30 }
  - { offset: 0x1B47D, size: 0x8, addend: 0x0, symName: __ZN5Token14setTokenStringENSt3__112basic_stringIcNS0_11char_traitsIcEENS0_9allocatorIcEEEE, symObjAddr: 0xA70, symBinAddr: 0x10000E2B0, symSize: 0x30 }
  - { offset: 0x1B4B4, size: 0x8, addend: 0x0, symName: __ZN5Token5printEv, symObjAddr: 0xAA0, symBinAddr: 0x10000E2E0, symSize: 0x2260 }
  - { offset: 0x225C6, size: 0x8, addend: 0x0, symName: __ZN9TokenizerC2ENSt3__112basic_stringIcNS0_11char_traitsIcEENS0_9allocatorIcEEEE, symObjAddr: 0x0, symBinAddr: 0x100010540, symSize: 0xB0 }
  - { offset: 0x22606, size: 0x8, addend: 0x0, symName: __ZN9TokenizerC1ENSt3__112basic_stringIcNS0_11char_traitsIcEENS0_9allocatorIcEEEE, symObjAddr: 0x1D0, symBinAddr: 0x1000105F0, symSize: 0x20 }
  - { offset: 0x22641, size: 0x8, addend: 0x0, symName: __ZN9Tokenizer14charOfInterestEc, symObjAddr: 0x1F0, symBinAddr: 0x100010610, symSize: 0x2B0 }
  - { offset: 0x22676, size: 0x8, addend: 0x0, symName: __Z7isalnumi, symObjAddr: 0x4A0, symBinAddr: 0x1000108C0, symSize: 0x20 }
  - { offset: 0x226A3, size: 0x8, addend: 0x0, symName: __ZN9Tokenizer8getTokenEv, symObjAddr: 0x4C0, symBinAddr: 0x1000108E0, symSize: 0x1680 }
  - { offset: 0x226FB, size: 0x8, addend: 0x0, symName: __ZNKSt3__19basic_iosIcNS_11char_traitsIcEEEcvbB8ne180100Ev, symObjAddr: 0x1D00, symBinAddr: 0x100011F60, symSize: 0x30 }
  - { offset: 0x22720, size: 0x8, addend: 0x0, symName: __Z7isalphai, symObjAddr: 0x1D50, symBinAddr: 0x100011F90, symSize: 0x20 }
  - { offset: 0x2274C, size: 0x8, addend: 0x0, symName: __Z7isdigiti, symObjAddr: 0x1DA0, symBinAddr: 0x100011FB0, symSize: 0x20 }
  - { offset: 0x22778, size: 0x8, addend: 0x0, symName: __Z8__istypeim, symObjAddr: 0x1E90, symBinAddr: 0x100011FD0, symSize: 0x70 }
  - { offset: 0x227B2, size: 0x8, addend: 0x0, symName: __Z7isasciii, symObjAddr: 0x1F00, symBinAddr: 0x100012040, symSize: 0x20 }
  - { offset: 0x227DE, size: 0x8, addend: 0x0, symName: __Z9__isctypeim, symObjAddr: 0x1F20, symBinAddr: 0x100012060, symSize: 0x60 }
  - { offset: 0x22819, size: 0x8, addend: 0x0, symName: __ZNKSt3__19basic_iosIcNS_11char_traitsIcEEE4failB8ne180100Ev, symObjAddr: 0x2C40, symBinAddr: 0x1000120C0, symSize: 0x20 }
  - { offset: 0x2283E, size: 0x8, addend: 0x0, symName: __ZNKSt3__18ios_base4failB8ne180100Ev, symObjAddr: 0x2C60, symBinAddr: 0x1000120E0, symSize: 0x20 }
  - { offset: 0x28D37, size: 0x8, addend: 0x0, symName: __ZNSt3__1plB8ne180100IcNS_11char_traitsIcEENS_9allocatorIcEEEENS_12basic_stringIT_T0_T1_EEPKS6_OS9_, symObjAddr: 0x960, symBinAddr: 0x1000129C0, symSize: 0x50 }
  - { offset: 0x28D8F, size: 0x8, addend: 0x0, symName: __ZNSt3__1neB8ne180100ERKNS_16__deque_iteratorIP7CSTNodePS2_RS2_PS3_lLl512EEES8_, symObjAddr: 0xFA0, symBinAddr: 0x100012F80, symSize: 0x30 }
  - { offset: 0x28DCC, size: 0x8, addend: 0x0, symName: __ZNSt3__1eqB8ne180100ERKNS_16__deque_iteratorIP7CSTNodePS2_RS2_PS3_lLl512EEES8_, symObjAddr: 0x1220, symBinAddr: 0x1000131E0, symSize: 0x30 }
  - { offset: 0x28E09, size: 0x8, addend: 0x0, symName: __ZNSt3__112__to_addressB8ne180100IPP7CSTNodeEEPT_S5_, symObjAddr: 0x15B0, symBinAddr: 0x1000134F0, symSize: 0x10 }
  - { offset: 0x2928F, size: 0x8, addend: 0x0, symName: __ZNSt3__14swapB8ne180100IPPP7CSTNodeEENS_9enable_ifIXaasr21is_move_constructibleIT_EE5valuesr18is_move_assignableIS6_EE5valueEvE4typeERS6_S9_, symObjAddr: 0x2D20, symBinAddr: 0x100014C10, symSize: 0x40 }
  - { offset: 0x292E0, size: 0x8, addend: 0x0, symName: __ZNSt3__14moveB8ne180100IPPP7CSTNodeS4_EET0_T_S6_S5_, symObjAddr: 0x2DE0, symBinAddr: 0x100014CD0, symSize: 0x40 }
  - { offset: 0x2933A, size: 0x8, addend: 0x0, symName: __ZNSt3__16__moveB8ne180100INS_17_ClassicAlgPolicyEPPP7CSTNodeS5_S5_EENS_4pairIT0_T2_EES7_T1_S8_, symObjAddr: 0x2EE0, symBinAddr: 0x100014DD0, symSize: 0x40 }
  - { offset: 0x293A6, size: 0x8, addend: 0x0, symName: __ZNSt3__123__dispatch_copy_or_moveB8ne180100INS_17_ClassicAlgPolicyENS_11__move_loopIS1_EENS_14__move_trivialEPPP7CSTNodeS8_S8_EENS_4pairIT2_T4_EESA_T3_SB_, symObjAddr: 0x2F20, symBinAddr: 0x100014E10, symSize: 0x40 }
  - { offset: 0x29424, size: 0x8, addend: 0x0, symName: __ZNSt3__121__unwrap_and_dispatchB8ne180100INS_10__overloadINS_11__move_loopINS_17_ClassicAlgPolicyEEENS_14__move_trivialEEEPPP7CSTNodeSA_SA_Li0EEENS_4pairIT0_T2_EESC_T1_SD_, symObjAddr: 0x2F60, symBinAddr: 0x100014E50, symSize: 0xB0 }
  - { offset: 0x294B3, size: 0x8, addend: 0x0, symName: __ZNSt3__114__unwrap_rangeB8ne180100IPPP7CSTNodeS4_EENS_4pairIT0_S6_EET_S8_, symObjAddr: 0x3010, symBinAddr: 0x100014F00, symSize: 0x50 }
  - { offset: 0x29677, size: 0x8, addend: 0x0, symName: __ZNSt3__113__unwrap_iterB8ne180100IPPP7CSTNodeNS_18__unwrap_iter_implIS4_Lb1EEELi0EEEDTclsrT0_8__unwrapclsr3stdE7declvalIT_EEEES8_, symObjAddr: 0x30A0, symBinAddr: 0x100014F90, symSize: 0x20 }
  - { offset: 0x296BB, size: 0x8, addend: 0x0, symName: __ZNSt3__19make_pairB8ne180100IPPP7CSTNodeS4_EENS_4pairINS_18__unwrap_ref_decayIT_E4typeENS6_IT0_E4typeEEEOS7_OSA_, symObjAddr: 0x30C0, symBinAddr: 0x100014FB0, symSize: 0x30 }
  - { offset: 0x2970A, size: 0x8, addend: 0x0, symName: __ZNSt3__114__rewrap_rangeB8ne180100IPPP7CSTNodeS4_EET_S5_T0_, symObjAddr: 0x30F0, symBinAddr: 0x100014FE0, symSize: 0x30 }
  - { offset: 0x29756, size: 0x8, addend: 0x0, symName: __ZNSt3__113__rewrap_iterB8ne180100IPPP7CSTNodeS4_NS_18__unwrap_iter_implIS4_Lb1EEEEET_S7_T0_, symObjAddr: 0x3120, symBinAddr: 0x100015010, symSize: 0x40 }
  - { offset: 0x297AB, size: 0x8, addend: 0x0, symName: __ZNSt3__119__copy_trivial_implB8ne180100IPP7CSTNodeS3_EENS_4pairIPT_PT0_EES6_S6_S8_, symObjAddr: 0x3160, symBinAddr: 0x100015050, symSize: 0x70 }
  - { offset: 0x29813, size: 0x8, addend: 0x0, symName: __ZNSt3__119__constexpr_memmoveB8ne180100IPP7CSTNodeS3_Li0EEEPT_S5_PT0_NS_15__element_countE, symObjAddr: 0x31D0, symBinAddr: 0x1000150C0, symSize: 0x50 }
  - { offset: 0x29881, size: 0x8, addend: 0x0, symName: __ZNSt3__19make_pairB8ne180100IRPPP7CSTNodeS4_EENS_4pairINS_18__unwrap_ref_decayIT_E4typeENS7_IT0_E4typeEEEOS8_OSB_, symObjAddr: 0x3220, symBinAddr: 0x100015110, symSize: 0x30 }
  - { offset: 0x29923, size: 0x8, addend: 0x0, symName: __ZNSt3__18distanceB8ne180100INS_13move_iteratorIPPP7CSTNodeEEEENS_15iterator_traitsIT_E15difference_typeES8_S8_, symObjAddr: 0x3460, symBinAddr: 0x100015350, symSize: 0x40 }
  - { offset: 0x29966, size: 0x8, addend: 0x0, symName: __ZNSt3__110__distanceB8ne180100INS_13move_iteratorIPPP7CSTNodeEEEENS_15iterator_traitsIT_E15difference_typeES8_S8_NS_26random_access_iterator_tagE, symObjAddr: 0x3640, symBinAddr: 0x100015530, symSize: 0x30 }
  - { offset: 0x299B3, size: 0x8, addend: 0x0, symName: __ZNSt3__1miB8ne180100IPPP7CSTNodeS4_EEDTmicldtfp_4baseEcldtfp0_4baseEERKNS_13move_iteratorIT_EERKNS6_IT0_EE, symObjAddr: 0x3670, symBinAddr: 0x100015560, symSize: 0x40 }
  - { offset: 0x29A02, size: 0x8, addend: 0x0, symName: __ZNSt3__113move_backwardB8ne180100IPPP7CSTNodeS4_EET0_T_S6_S5_, symObjAddr: 0x3820, symBinAddr: 0x100015690, symSize: 0x40 }
  - { offset: 0x29A5C, size: 0x8, addend: 0x0, symName: __ZNSt3__115__move_backwardB8ne180100INS_17_ClassicAlgPolicyEPPP7CSTNodeS5_S5_EENS_4pairIT0_T2_EES7_T1_S8_, symObjAddr: 0x3860, symBinAddr: 0x1000156D0, symSize: 0x40 }
  - { offset: 0x29AC8, size: 0x8, addend: 0x0, symName: __ZNSt3__123__dispatch_copy_or_moveB8ne180100INS_17_ClassicAlgPolicyENS_20__move_backward_loopIS1_EENS_23__move_backward_trivialEPPP7CSTNodeS8_S8_EENS_4pairIT2_T4_EESA_T3_SB_, symObjAddr: 0x38A0, symBinAddr: 0x100015710, symSize: 0x40 }
  - { offset: 0x29B46, size: 0x8, addend: 0x0, symName: __ZNSt3__121__unwrap_and_dispatchB8ne180100INS_10__overloadINS_20__move_backward_loopINS_17_ClassicAlgPolicyEEENS_23__move_backward_trivialEEEPPP7CSTNodeSA_SA_Li0EEENS_4pairIT0_T2_EESC_T1_SD_, symObjAddr: 0x38E0, symBinAddr: 0x100015750, symSize: 0xB0 }
  - { offset: 0x29C1B, size: 0x8, addend: 0x0, symName: __ZNSt3__128__copy_backward_trivial_implB8ne180100IPP7CSTNodeS3_EENS_4pairIPT_PT0_EES6_S6_S8_, symObjAddr: 0x39D0, symBinAddr: 0x100015840, symSize: 0x70 }
  - { offset: 0x29C83, size: 0x8, addend: 0x0, symName: __ZNSt3__19make_pairB8ne180100IRPPP7CSTNodeS5_EENS_4pairINS_18__unwrap_ref_decayIT_E4typeENS7_IT0_E4typeEEEOS8_OSB_, symObjAddr: 0x3A40, symBinAddr: 0x1000158B0, symSize: 0x30 }
  - { offset: 0x29CD2, size: 0x8, addend: 0x0, symName: __ZNSt3__119__allocate_at_leastB8ne180100INS_9allocatorIPP7CSTNodeEEEENS_19__allocation_resultINS_16allocator_traitsIT_E7pointerEEERS8_m, symObjAddr: 0x3C50, symBinAddr: 0x100015A40, symSize: 0x40 }
  - { offset: 0x29D15, size: 0x8, addend: 0x0, symName: __ZNSt3__112__to_addressB8ne180100IP7CSTNodeEEPT_S4_, symObjAddr: 0x4FB0, symBinAddr: 0x100016150, symSize: 0x10 }
  - { offset: 0x2B65D, size: 0x8, addend: 0x0, symName: __ZN3CST8addChildEP7CSTNode5Token, symObjAddr: 0x0, symBinAddr: 0x100012100, symSize: 0x210 }
  - { offset: 0x2B6B6, size: 0x8, addend: 0x0, symName: __ZN7CSTNode7getLeftEv, symObjAddr: 0x210, symBinAddr: 0x100012310, symSize: 0x20 }
  - { offset: 0x2B6DC, size: 0x8, addend: 0x0, symName: __ZN7CSTNode8getRightEv, symObjAddr: 0x230, symBinAddr: 0x100012330, symSize: 0x20 }
  - { offset: 0x2B702, size: 0x8, addend: 0x0, symName: __ZN7CSTNodeC1ERK5Token, symObjAddr: 0x250, symBinAddr: 0x100012350, symSize: 0x30 }
  - { offset: 0x2B73A, size: 0x8, addend: 0x0, symName: __ZN7CSTNode9leftChildEPS_, symObjAddr: 0x280, symBinAddr: 0x100012380, symSize: 0x20 }
  - { offset: 0x2B76E, size: 0x8, addend: 0x0, symName: __ZN7CSTNode8setChildEb, symObjAddr: 0x2A0, symBinAddr: 0x1000123A0, symSize: 0x20 }
  - { offset: 0x2B7A2, size: 0x8, addend: 0x0, symName: __ZN3CST10addSiblingEP7CSTNode5Token, symObjAddr: 0x310, symBinAddr: 0x1000123C0, symSize: 0x1F0 }
  - { offset: 0x2B7FB, size: 0x8, addend: 0x0, symName: __ZN7CSTNode12rightSiblingEPS_, symObjAddr: 0x500, symBinAddr: 0x1000125B0, symSize: 0x20 }
  - { offset: 0x2B82F, size: 0x8, addend: 0x0, symName: __ZN3CST9printTreeEv, symObjAddr: 0x520, symBinAddr: 0x1000125D0, symSize: 0x340 }
  - { offset: 0x2B8B6, size: 0x8, addend: 0x0, symName: __ZNSt3__15queueIP7CSTNodeNS_5dequeIS2_NS_9allocatorIS2_EEEEEC1B8ne180100Ev, symObjAddr: 0x860, symBinAddr: 0x100012910, symSize: 0x20 }
  - { offset: 0x2B8E0, size: 0x8, addend: 0x0, symName: __ZNSt3__15queueIP7CSTNodeNS_5dequeIS2_NS_9allocatorIS2_EEEEE4pushB8ne180100ERKS2_, symObjAddr: 0x880, symBinAddr: 0x100012930, symSize: 0x30 }
  - { offset: 0x2B915, size: 0x8, addend: 0x0, symName: __ZNKSt3__15queueIP7CSTNodeNS_5dequeIS2_NS_9allocatorIS2_EEEEE5emptyB8ne180100Ev, symObjAddr: 0x8B0, symBinAddr: 0x100012960, symSize: 0x20 }
  - { offset: 0x2B93B, size: 0x8, addend: 0x0, symName: __ZNSt3__15queueIP7CSTNodeNS_5dequeIS2_NS_9allocatorIS2_EEEEE5frontB8ne180100Ev, symObjAddr: 0x8D0, symBinAddr: 0x100012980, symSize: 0x20 }
  - { offset: 0x2B961, size: 0x8, addend: 0x0, symName: __ZN7CSTNode7isChildEv, symObjAddr: 0x8F0, symBinAddr: 0x1000129A0, symSize: 0x20 }
  - { offset: 0x2B987, size: 0x8, addend: 0x0, symName: __ZN7CSTNode8getTokenEv, symObjAddr: 0x9B0, symBinAddr: 0x100012A10, symSize: 0x30 }
  - { offset: 0x2B9AD, size: 0x8, addend: 0x0, symName: __ZNSt3__15queueIP7CSTNodeNS_5dequeIS2_NS_9allocatorIS2_EEEEE3popB8ne180100Ev, symObjAddr: 0x9E0, symBinAddr: 0x100012A40, symSize: 0x20 }
  - { offset: 0x2B9D3, size: 0x8, addend: 0x0, symName: __ZNSt3__15queueIP7CSTNodeNS_5dequeIS2_NS_9allocatorIS2_EEEEE4pushB8ne180100EOS2_, symObjAddr: 0xA00, symBinAddr: 0x100012A60, symSize: 0x30 }
  - { offset: 0x2BA08, size: 0x8, addend: 0x0, symName: __ZNSt3__15queueIP7CSTNodeNS_5dequeIS2_NS_9allocatorIS2_EEEEED1Ev, symObjAddr: 0xA30, symBinAddr: 0x100012A90, symSize: 0x20 }
  - { offset: 0x2BA35, size: 0x8, addend: 0x0, symName: __ZN7CSTNodeC2ERK5Token, symObjAddr: 0xA50, symBinAddr: 0x100012AB0, symSize: 0x40 }
  - { offset: 0x2BA6D, size: 0x8, addend: 0x0, symName: __ZNSt3__15queueIP7CSTNodeNS_5dequeIS2_NS_9allocatorIS2_EEEEED2Ev, symObjAddr: 0xB10, symBinAddr: 0x100012AF0, symSize: 0x20 }
  - { offset: 0x2BA9A, size: 0x8, addend: 0x0, symName: __ZNSt3__15dequeIP7CSTNodeNS_9allocatorIS2_EEED1B8ne180100Ev, symObjAddr: 0xB30, symBinAddr: 0x100012B10, symSize: 0x20 }
  - { offset: 0x2BAC4, size: 0x8, addend: 0x0, symName: __ZNSt3__15dequeIP7CSTNodeNS_9allocatorIS2_EEED2B8ne180100Ev, symObjAddr: 0xB50, symBinAddr: 0x100012B30, symSize: 0x90 }
  - { offset: 0x2BB1A, size: 0x8, addend: 0x0, symName: __ZNSt3__15dequeIP7CSTNodeNS_9allocatorIS2_EEE5clearEv, symObjAddr: 0xBE0, symBinAddr: 0x100012BC0, symSize: 0x1A0 }
  - { offset: 0x2BB75, size: 0x8, addend: 0x0, symName: __ZNKSt3__15dequeIP7CSTNodeNS_9allocatorIS2_EEE17__annotate_deleteB8ne180100Ev, symObjAddr: 0xD80, symBinAddr: 0x100012D60, symSize: 0x10 }
  - { offset: 0x2BB9B, size: 0x8, addend: 0x0, symName: __ZNSt3__114__split_bufferIPP7CSTNodeNS_9allocatorIS3_EEE5beginB8ne180100Ev, symObjAddr: 0xD90, symBinAddr: 0x100012D70, symSize: 0x20 }
  - { offset: 0x2BBC1, size: 0x8, addend: 0x0, symName: __ZNSt3__114__split_bufferIPP7CSTNodeNS_9allocatorIS3_EEE3endB8ne180100Ev, symObjAddr: 0xDB0, symBinAddr: 0x100012D90, symSize: 0x20 }
  - { offset: 0x2BBE7, size: 0x8, addend: 0x0, symName: __ZNSt3__116allocator_traitsINS_9allocatorIP7CSTNodeEEE10deallocateB8ne180100ERS4_PS3_m, symObjAddr: 0xDD0, symBinAddr: 0x100012DB0, symSize: 0x30 }
  - { offset: 0x2BC29, size: 0x8, addend: 0x0, symName: __ZNSt3__15dequeIP7CSTNodeNS_9allocatorIS2_EEE7__allocB8ne180100Ev, symObjAddr: 0xE00, symBinAddr: 0x100012DE0, symSize: 0x20 }
  - { offset: 0x2BC4F, size: 0x8, addend: 0x0, symName: __ZNSt3__114__split_bufferIPP7CSTNodeNS_9allocatorIS3_EEED1Ev, symObjAddr: 0xE20, symBinAddr: 0x100012E00, symSize: 0x20 }
  - { offset: 0x2BC7B, size: 0x8, addend: 0x0, symName: __ZNSt3__15dequeIP7CSTNodeNS_9allocatorIS2_EEE5beginB8ne180100Ev, symObjAddr: 0xE40, symBinAddr: 0x100012E20, symSize: 0xB0 }
  - { offset: 0x2BCB0, size: 0x8, addend: 0x0, symName: __ZNSt3__15dequeIP7CSTNodeNS_9allocatorIS2_EEE3endB8ne180100Ev, symObjAddr: 0xEF0, symBinAddr: 0x100012ED0, symSize: 0xB0 }
  - { offset: 0x2BCF4, size: 0x8, addend: 0x0, symName: __ZNSt3__116allocator_traitsINS_9allocatorIP7CSTNodeEEE7destroyB8ne180100IS3_vEEvRS4_PT_, symObjAddr: 0xFE0, symBinAddr: 0x100012FB0, symSize: 0x30 }
  - { offset: 0x2BD31, size: 0x8, addend: 0x0, symName: __ZNKSt3__116__deque_iteratorIP7CSTNodePS2_RS2_PS3_lLl512EEdeB8ne180100Ev, symObjAddr: 0x1010, symBinAddr: 0x100012FE0, symSize: 0x20 }
  - { offset: 0x2BD57, size: 0x8, addend: 0x0, symName: __ZNSt3__116__deque_iteratorIP7CSTNodePS2_RS2_PS3_lLl512EEppB8ne180100Ev, symObjAddr: 0x1030, symBinAddr: 0x100013000, symSize: 0x60 }
  - { offset: 0x2BD7D, size: 0x8, addend: 0x0, symName: __ZNSt3__15dequeIP7CSTNodeNS_9allocatorIS2_EEE6__sizeB8ne180100Ev, symObjAddr: 0x1090, symBinAddr: 0x100013060, symSize: 0x20 }
  - { offset: 0x2BDA3, size: 0x8, addend: 0x0, symName: __ZNKSt3__114__split_bufferIPP7CSTNodeNS_9allocatorIS3_EEE4sizeB8ne180100Ev, symObjAddr: 0x10B0, symBinAddr: 0x100013080, symSize: 0x20 }
  - { offset: 0x2BDC9, size: 0x8, addend: 0x0, symName: __ZNSt3__114__split_bufferIPP7CSTNodeNS_9allocatorIS3_EEE5frontB8ne180100Ev, symObjAddr: 0x10D0, symBinAddr: 0x1000130A0, symSize: 0x20 }
  - { offset: 0x2BDEF, size: 0x8, addend: 0x0, symName: __ZNSt3__114__split_bufferIPP7CSTNodeNS_9allocatorIS3_EEE9pop_frontB8ne180100Ev, symObjAddr: 0x10F0, symBinAddr: 0x1000130C0, symSize: 0x30 }
  - { offset: 0x2BE15, size: 0x8, addend: 0x0, symName: __ZNKSt3__15dequeIP7CSTNodeNS_9allocatorIS2_EEE14__annotate_newB8ne180100Em, symObjAddr: 0x1120, symBinAddr: 0x1000130F0, symSize: 0x10 }
  - { offset: 0x2BE4A, size: 0x8, addend: 0x0, symName: __ZNKSt3__114__split_bufferIPP7CSTNodeNS_9allocatorIS3_EEE5emptyB8ne180100Ev, symObjAddr: 0x1130, symBinAddr: 0x100013100, symSize: 0x20 }
  - { offset: 0x2BE70, size: 0x8, addend: 0x0, symName: __ZNSt3__116__deque_iteratorIP7CSTNodePS2_RS2_PS3_lLl512EEC1B8ne180100ES5_S3_, symObjAddr: 0x1150, symBinAddr: 0x100013120, symSize: 0x30 }
  - { offset: 0x2BEB8, size: 0x8, addend: 0x0, symName: __ZNSt3__116__deque_iteratorIP7CSTNodePS2_RS2_PS3_lLl512EEC2B8ne180100ES5_S3_, symObjAddr: 0x1180, symBinAddr: 0x100013150, symSize: 0x30 }
  - { offset: 0x2BF00, size: 0x8, addend: 0x0, symName: __ZNKSt3__15dequeIP7CSTNodeNS_9allocatorIS2_EEE4sizeB8ne180100Ev, symObjAddr: 0x11B0, symBinAddr: 0x100013180, symSize: 0x20 }
  - { offset: 0x2BF26, size: 0x8, addend: 0x0, symName: __ZNKSt3__15dequeIP7CSTNodeNS_9allocatorIS2_EEE6__sizeB8ne180100Ev, symObjAddr: 0x11D0, symBinAddr: 0x1000131A0, symSize: 0x20 }
  - { offset: 0x2BF4C, size: 0x8, addend: 0x0, symName: __ZNKSt3__117__compressed_pairImNS_9allocatorIP7CSTNodeEEE5firstB8ne180100Ev, symObjAddr: 0x11F0, symBinAddr: 0x1000131C0, symSize: 0x20 }
  - { offset: 0x2BF72, size: 0x8, addend: 0x0, symName: __ZNSt3__19allocatorIP7CSTNodeE7destroyB8ne180100EPS2_, symObjAddr: 0x1250, symBinAddr: 0x100013210, symSize: 0x10 }
  - { offset: 0x2BFA6, size: 0x8, addend: 0x0, symName: __ZNSt3__117__compressed_pairImNS_9allocatorIP7CSTNodeEEE5firstB8ne180100Ev, symObjAddr: 0x1260, symBinAddr: 0x100013220, symSize: 0x20 }
  - { offset: 0x2BFCC, size: 0x8, addend: 0x0, symName: __ZNSt3__114__split_bufferIPP7CSTNodeNS_9allocatorIS3_EEE19__destruct_at_beginB8ne180100EPS3_, symObjAddr: 0x1290, symBinAddr: 0x100013240, symSize: 0x30 }
  - { offset: 0x2BFFF, size: 0x8, addend: 0x0, symName: __ZNSt3__114__split_bufferIPP7CSTNodeNS_9allocatorIS3_EEE19__destruct_at_beginEPS3_NS_17integral_constantIbLb1EEE, symObjAddr: 0x12C0, symBinAddr: 0x100013270, symSize: 0x20 }
  - { offset: 0x2C03F, size: 0x8, addend: 0x0, symName: __ZNSt3__19allocatorIP7CSTNodeE10deallocateB8ne180100EPS2_m, symObjAddr: 0x12E0, symBinAddr: 0x100013290, symSize: 0x40 }
  - { offset: 0x2C081, size: 0x8, addend: 0x0, symName: __ZNSt3__117__compressed_pairImNS_9allocatorIP7CSTNodeEEE6secondB8ne180100Ev, symObjAddr: 0x1390, symBinAddr: 0x1000132D0, symSize: 0x20 }
  - { offset: 0x2C0A7, size: 0x8, addend: 0x0, symName: __ZNSt3__122__compressed_pair_elemINS_9allocatorIP7CSTNodeEELi1ELb1EE5__getB8ne180100Ev, symObjAddr: 0x13B0, symBinAddr: 0x1000132F0, symSize: 0x10 }
  - { offset: 0x2C0CD, size: 0x8, addend: 0x0, symName: __ZNSt3__114__split_bufferIPP7CSTNodeNS_9allocatorIS3_EEED2Ev, symObjAddr: 0x13C0, symBinAddr: 0x100013300, symSize: 0x70 }
  - { offset: 0x2C0F9, size: 0x8, addend: 0x0, symName: __ZNSt3__114__split_bufferIPP7CSTNodeNS_9allocatorIS3_EEE5clearB8ne180100Ev, symObjAddr: 0x1430, symBinAddr: 0x100013370, symSize: 0x20 }
  - { offset: 0x2C11F, size: 0x8, addend: 0x0, symName: __ZNSt3__116allocator_traitsINS_9allocatorIPP7CSTNodeEEE10deallocateB8ne180100ERS5_PS4_m, symObjAddr: 0x1450, symBinAddr: 0x100013390, symSize: 0x30 }
  - { offset: 0x2C161, size: 0x8, addend: 0x0, symName: __ZNSt3__114__split_bufferIPP7CSTNodeNS_9allocatorIS3_EEE7__allocB8ne180100Ev, symObjAddr: 0x1480, symBinAddr: 0x1000133C0, symSize: 0x20 }
  - { offset: 0x2C187, size: 0x8, addend: 0x0, symName: __ZNKSt3__114__split_bufferIPP7CSTNodeNS_9allocatorIS3_EEE8capacityB8ne180100Ev, symObjAddr: 0x14A0, symBinAddr: 0x1000133E0, symSize: 0x30 }
  - { offset: 0x2C1AD, size: 0x8, addend: 0x0, symName: __ZNSt3__114__split_bufferIPP7CSTNodeNS_9allocatorIS3_EEE17__destruct_at_endB8ne180100EPS3_, symObjAddr: 0x14D0, symBinAddr: 0x100013410, symSize: 0x30 }
  - { offset: 0x2C1E0, size: 0x8, addend: 0x0, symName: __ZNSt3__114__split_bufferIPP7CSTNodeNS_9allocatorIS3_EEE17__destruct_at_endB8ne180100EPS3_NS_17integral_constantIbLb0EEE, symObjAddr: 0x1500, symBinAddr: 0x100013440, symSize: 0x80 }
  - { offset: 0x2C220, size: 0x8, addend: 0x0, symName: __ZNSt3__116allocator_traitsINS_9allocatorIPP7CSTNodeEEE7destroyB8ne180100IS4_vEEvRS5_PT_, symObjAddr: 0x1580, symBinAddr: 0x1000134C0, symSize: 0x30 }
  - { offset: 0x2C25D, size: 0x8, addend: 0x0, symName: __ZNSt3__19allocatorIPP7CSTNodeE7destroyB8ne180100EPS3_, symObjAddr: 0x15C0, symBinAddr: 0x100013500, symSize: 0x10 }
  - { offset: 0x2C291, size: 0x8, addend: 0x0, symName: __ZNSt3__19allocatorIPP7CSTNodeE10deallocateB8ne180100EPS3_m, symObjAddr: 0x15D0, symBinAddr: 0x100013510, symSize: 0x40 }
  - { offset: 0x2C2D3, size: 0x8, addend: 0x0, symName: __ZNSt3__117__compressed_pairIPPP7CSTNodeNS_9allocatorIS3_EEE6secondB8ne180100Ev, symObjAddr: 0x1610, symBinAddr: 0x100013550, symSize: 0x20 }
  - { offset: 0x2C2F9, size: 0x8, addend: 0x0, symName: __ZNSt3__122__compressed_pair_elemINS_9allocatorIPP7CSTNodeEELi1ELb1EE5__getB8ne180100Ev, symObjAddr: 0x1630, symBinAddr: 0x100013570, symSize: 0x10 }
  - { offset: 0x2C31F, size: 0x8, addend: 0x0, symName: __ZNKSt3__114__split_bufferIPP7CSTNodeNS_9allocatorIS3_EEE9__end_capB8ne180100Ev, symObjAddr: 0x1640, symBinAddr: 0x100013580, symSize: 0x20 }
  - { offset: 0x2C345, size: 0x8, addend: 0x0, symName: __ZNKSt3__117__compressed_pairIPPP7CSTNodeNS_9allocatorIS3_EEE5firstB8ne180100Ev, symObjAddr: 0x1660, symBinAddr: 0x1000135A0, symSize: 0x20 }
  - { offset: 0x2C36B, size: 0x8, addend: 0x0, symName: __ZNKSt3__122__compressed_pair_elemIPPP7CSTNodeLi0ELb0EE5__getB8ne180100Ev, symObjAddr: 0x1680, symBinAddr: 0x1000135C0, symSize: 0x10 }
  - { offset: 0x2C391, size: 0x8, addend: 0x0, symName: __ZNSt3__15queueIP7CSTNodeNS_5dequeIS2_NS_9allocatorIS2_EEEEEC2B8ne180100Ev, symObjAddr: 0x1690, symBinAddr: 0x1000135D0, symSize: 0x20 }
  - { offset: 0x2C3BB, size: 0x8, addend: 0x0, symName: __ZNSt3__15dequeIP7CSTNodeNS_9allocatorIS2_EEEC1B8ne180100Ev, symObjAddr: 0x16B0, symBinAddr: 0x1000135F0, symSize: 0x20 }
  - { offset: 0x2C3E5, size: 0x8, addend: 0x0, symName: __ZNSt3__15dequeIP7CSTNodeNS_9allocatorIS2_EEEC2B8ne180100Ev, symObjAddr: 0x16D0, symBinAddr: 0x100013610, symSize: 0x60 }
  - { offset: 0x2C40F, size: 0x8, addend: 0x0, symName: __ZNSt3__114__split_bufferIPP7CSTNodeNS_9allocatorIS3_EEEC1B8ne180100Ev, symObjAddr: 0x1730, symBinAddr: 0x100013670, symSize: 0x20 }
  - { offset: 0x2C443, size: 0x8, addend: 0x0, symName: __ZNSt3__117__compressed_pairImNS_9allocatorIP7CSTNodeEEEC1B8ne180100IiNS_18__default_init_tagEEEOT_OT0_, symObjAddr: 0x1750, symBinAddr: 0x100013690, symSize: 0x30 }
  - { offset: 0x2C49B, size: 0x8, addend: 0x0, symName: __ZNSt3__114__split_bufferIPP7CSTNodeNS_9allocatorIS3_EEEC2B8ne180100Ev, symObjAddr: 0x1780, symBinAddr: 0x1000136C0, symSize: 0x60 }
  - { offset: 0x2C4D0, size: 0x8, addend: 0x0, symName: __ZNSt3__117__compressed_pairIPPP7CSTNodeNS_9allocatorIS3_EEEC1B8ne180100IDnNS_18__default_init_tagEEEOT_OT0_, symObjAddr: 0x17E0, symBinAddr: 0x100013720, symSize: 0x30 }
  - { offset: 0x2C528, size: 0x8, addend: 0x0, symName: __ZNSt3__117__compressed_pairIPPP7CSTNodeNS_9allocatorIS3_EEEC2B8ne180100IDnNS_18__default_init_tagEEEOT_OT0_, symObjAddr: 0x1810, symBinAddr: 0x100013750, symSize: 0x40 }
  - { offset: 0x2C580, size: 0x8, addend: 0x0, symName: __ZNSt3__122__compressed_pair_elemIPPP7CSTNodeLi0ELb0EEC2B8ne180100IDnvEEOT_, symObjAddr: 0x1850, symBinAddr: 0x100013790, symSize: 0x20 }
  - { offset: 0x2C5C2, size: 0x8, addend: 0x0, symName: __ZNSt3__122__compressed_pair_elemINS_9allocatorIPP7CSTNodeEELi1ELb1EEC2B8ne180100ENS_18__default_init_tagE, symObjAddr: 0x1870, symBinAddr: 0x1000137B0, symSize: 0x20 }
  - { offset: 0x2C5F6, size: 0x8, addend: 0x0, symName: __ZNSt3__19allocatorIPP7CSTNodeEC2B8ne180100Ev, symObjAddr: 0x1890, symBinAddr: 0x1000137D0, symSize: 0x20 }
  - { offset: 0x2C620, size: 0x8, addend: 0x0, symName: __ZNSt3__116__non_trivial_ifILb1ENS_9allocatorIPP7CSTNodeEEEC2B8ne180100Ev, symObjAddr: 0x18B0, symBinAddr: 0x1000137F0, symSize: 0x10 }
  - { offset: 0x2C64A, size: 0x8, addend: 0x0, symName: __ZNSt3__117__compressed_pairImNS_9allocatorIP7CSTNodeEEEC2B8ne180100IiNS_18__default_init_tagEEEOT_OT0_, symObjAddr: 0x18C0, symBinAddr: 0x100013800, symSize: 0x40 }
  - { offset: 0x2C6A2, size: 0x8, addend: 0x0, symName: __ZNSt3__122__compressed_pair_elemINS_9allocatorIP7CSTNodeEELi1ELb1EEC2B8ne180100ENS_18__default_init_tagE, symObjAddr: 0x1920, symBinAddr: 0x100013840, symSize: 0x20 }
  - { offset: 0x2C6D6, size: 0x8, addend: 0x0, symName: __ZNSt3__19allocatorIP7CSTNodeEC2B8ne180100Ev, symObjAddr: 0x1940, symBinAddr: 0x100013860, symSize: 0x20 }
  - { offset: 0x2C700, size: 0x8, addend: 0x0, symName: __ZNSt3__116__non_trivial_ifILb1ENS_9allocatorIP7CSTNodeEEEC2B8ne180100Ev, symObjAddr: 0x1960, symBinAddr: 0x100013880, symSize: 0x10 }
  - { offset: 0x2C729, size: 0x8, addend: 0x0, symName: __ZNSt3__15dequeIP7CSTNodeNS_9allocatorIS2_EEE9push_backERKS2_, symObjAddr: 0x1970, symBinAddr: 0x100013890, symSize: 0xA0 }
  - { offset: 0x2C76F, size: 0x8, addend: 0x0, symName: __ZNKSt3__15dequeIP7CSTNodeNS_9allocatorIS2_EEE12__back_spareB8ne180100Ev, symObjAddr: 0x1A10, symBinAddr: 0x100013930, symSize: 0x50 }
  - { offset: 0x2C794, size: 0x8, addend: 0x0, symName: __ZNSt3__15dequeIP7CSTNodeNS_9allocatorIS2_EEE19__add_back_capacityEv, symObjAddr: 0x1A60, symBinAddr: 0x100013980, symSize: 0x3C0 }
  - { offset: 0x2C84C, size: 0x8, addend: 0x0, symName: __ZNKSt3__15dequeIP7CSTNodeNS_9allocatorIS2_EEE24__annotate_increase_backB8ne180100Em, symObjAddr: 0x1E20, symBinAddr: 0x100013D40, symSize: 0x10 }
  - { offset: 0x2C881, size: 0x8, addend: 0x0, symName: __ZNSt3__116allocator_traitsINS_9allocatorIP7CSTNodeEEE9constructB8ne180100IS3_JRKS3_EvEEvRS4_PT_DpOT0_, symObjAddr: 0x1E30, symBinAddr: 0x100013D50, symSize: 0x30 }
  - { offset: 0x2C8D8, size: 0x8, addend: 0x0, symName: __ZNKSt3__15dequeIP7CSTNodeNS_9allocatorIS2_EEE10__capacityB8ne180100Ev, symObjAddr: 0x1E60, symBinAddr: 0x100013D80, symSize: 0x50 }
  - { offset: 0x2C8FE, size: 0x8, addend: 0x0, symName: __ZNKSt3__15dequeIP7CSTNodeNS_9allocatorIS2_EEE13__front_spareB8ne180100Ev, symObjAddr: 0x1EB0, symBinAddr: 0x100013DD0, symSize: 0x20 }
  - { offset: 0x2C923, size: 0x8, addend: 0x0, symName: __ZNSt3__114__split_bufferIPP7CSTNodeNS_9allocatorIS3_EEE9push_backB8ne180100ERKS3_, symObjAddr: 0x1ED0, symBinAddr: 0x100013DF0, symSize: 0x290 }
  - { offset: 0x2C99C, size: 0x8, addend: 0x0, symName: __ZNKSt3__114__split_bufferIPP7CSTNodeNS_9allocatorIS3_EEE12__back_spareB8ne180100Ev, symObjAddr: 0x2160, symBinAddr: 0x100014080, symSize: 0x40 }
  - { offset: 0x2C9C1, size: 0x8, addend: 0x0, symName: __ZNSt3__114__split_bufferIPP7CSTNodeNS_9allocatorIS3_EEE9push_backEOS3_, symObjAddr: 0x21A0, symBinAddr: 0x1000140C0, symSize: 0x290 }
  - { offset: 0x2CA3A, size: 0x8, addend: 0x0, symName: __ZNSt3__116allocator_traitsINS_9allocatorIP7CSTNodeEEE8allocateB8ne180100ERS4_m, symObjAddr: 0x2430, symBinAddr: 0x100014350, symSize: 0x30 }
  - { offset: 0x2CA6C, size: 0x8, addend: 0x0, symName: __ZNSt3__114__split_bufferIPP7CSTNodeNS_9allocatorIS3_EEE10push_frontEOS3_, symObjAddr: 0x2460, symBinAddr: 0x100014380, symSize: 0x270 }
  - { offset: 0x2CAE5, size: 0x8, addend: 0x0, symName: __ZNKSt3__15dequeIP7CSTNodeNS_9allocatorIS2_EEE22__annotate_whole_blockB8ne180100EmNS5_22__asan_annotation_typeE, symObjAddr: 0x26D0, symBinAddr: 0x1000145F0, symSize: 0x20 }
  - { offset: 0x2CB29, size: 0x8, addend: 0x0, symName: __ZNSt3__114__split_bufferIPP7CSTNodeRNS_9allocatorIS3_EEEC1EmmS6_, symObjAddr: 0x2720, symBinAddr: 0x100014610, symSize: 0x40 }
  - { offset: 0x2CB84, size: 0x8, addend: 0x0, symName: __ZNSt3__122__allocator_destructorINS_9allocatorIP7CSTNodeEEEC1B8ne180100ERS4_m, symObjAddr: 0x2760, symBinAddr: 0x100014650, symSize: 0x30 }
  - { offset: 0x2CC47, size: 0x8, addend: 0x0, symName: __ZNSt3__110unique_ptrIPP7CSTNodeNS_22__allocator_destructorINS_9allocatorIS2_EEEEEC1B8ne180100ILb1EvEES3_NS_16__dependent_typeINS_27__unique_ptr_deleter_sfinaeIS7_EEXT_EE20__good_rval_ref_typeE, symObjAddr: 0x2790, symBinAddr: 0x100014680, symSize: 0x30 }
  - { offset: 0x2CC97, size: 0x8, addend: 0x0, symName: __ZNSt3__114__split_bufferIPP7CSTNodeRNS_9allocatorIS3_EEE9push_backEOS3_, symObjAddr: 0x27C0, symBinAddr: 0x1000146B0, symSize: 0x290 }
  - { offset: 0x2CD10, size: 0x8, addend: 0x0, symName: __ZNKSt3__110unique_ptrIPP7CSTNodeNS_22__allocator_destructorINS_9allocatorIS2_EEEEE3getB8ne180100Ev, symObjAddr: 0x2A50, symBinAddr: 0x100014940, symSize: 0x20 }
  - { offset: 0x2CD36, size: 0x8, addend: 0x0, symName: __ZNSt3__110unique_ptrIPP7CSTNodeNS_22__allocator_destructorINS_9allocatorIS2_EEEEE7releaseB8ne180100Ev, symObjAddr: 0x2A70, symBinAddr: 0x100014960, symSize: 0x40 }
  - { offset: 0x2CD6A, size: 0x8, addend: 0x0, symName: __ZNSt3__114__split_bufferIPP7CSTNodeRNS_9allocatorIS3_EEE10push_frontERKS3_, symObjAddr: 0x2AB0, symBinAddr: 0x1000149A0, symSize: 0x270 }
  - { offset: 0x2CDE3, size: 0x8, addend: 0x0, symName: __ZNSt3__114__split_bufferIPP7CSTNodeNS_9allocatorIS3_EEE9__end_capB8ne180100Ev, symObjAddr: 0x2D60, symBinAddr: 0x100014C50, symSize: 0x20 }
  - { offset: 0x2CE09, size: 0x8, addend: 0x0, symName: __ZNSt3__114__split_bufferIPP7CSTNodeRNS_9allocatorIS3_EEE9__end_capB8ne180100Ev, symObjAddr: 0x2D80, symBinAddr: 0x100014C70, symSize: 0x20 }
  - { offset: 0x2CE2F, size: 0x8, addend: 0x0, symName: __ZNSt3__110unique_ptrIPP7CSTNodeNS_22__allocator_destructorINS_9allocatorIS2_EEEEED1B8ne180100Ev, symObjAddr: 0x2DA0, symBinAddr: 0x100014C90, symSize: 0x20 }
  - { offset: 0x2CE59, size: 0x8, addend: 0x0, symName: __ZNSt3__114__split_bufferIPP7CSTNodeRNS_9allocatorIS3_EEED1Ev, symObjAddr: 0x2DC0, symBinAddr: 0x100014CB0, symSize: 0x20 }
  - { offset: 0x2CE84, size: 0x8, addend: 0x0, symName: __ZNSt3__114__split_bufferIPP7CSTNodeRNS_9allocatorIS3_EEE18__construct_at_endINS_13move_iteratorIPS3_EELi0EEEvT_SC_, symObjAddr: 0x2E20, symBinAddr: 0x100014D10, symSize: 0x60 }
  - { offset: 0x2CED7, size: 0x8, addend: 0x0, symName: __ZNSt3__113move_iteratorIPPP7CSTNodeEC1B8ne180100ES4_, symObjAddr: 0x2E80, symBinAddr: 0x100014D70, symSize: 0x30 }
  - { offset: 0x2CF0F, size: 0x8, addend: 0x0, symName: __ZNSt3__116allocator_traitsINS_9allocatorIPP7CSTNodeEEE9constructB8ne180100IS4_JRKS4_EvEEvRS5_PT_DpOT0_, symObjAddr: 0x2EB0, symBinAddr: 0x100014DA0, symSize: 0x30 }
  - { offset: 0x2CF89, size: 0x8, addend: 0x0, symName: __ZNKSt3__114__move_trivialclB8ne180100IPP7CSTNodeS4_Li0EEENS_4pairIPT_PT0_EES7_S7_S9_, symObjAddr: 0x3060, symBinAddr: 0x100014F50, symSize: 0x40 }
  - { offset: 0x2CFF6, size: 0x8, addend: 0x0, symName: __ZNSt3__14pairIPPP7CSTNodeS4_EC1B8ne180100IRS4_S4_Li0EEEOT_OT0_, symObjAddr: 0x3250, symBinAddr: 0x100015140, symSize: 0x30 }
  - { offset: 0x2D054, size: 0x8, addend: 0x0, symName: __ZNSt3__14pairIPPP7CSTNodeS4_EC2B8ne180100IRS4_S4_Li0EEEOT_OT0_, symObjAddr: 0x3280, symBinAddr: 0x100015170, symSize: 0x30 }
  - { offset: 0x2D0B2, size: 0x8, addend: 0x0, symName: __ZNSt3__118__unwrap_iter_implIPPP7CSTNodeLb1EE8__unwrapB8ne180100ES4_, symObjAddr: 0x32B0, symBinAddr: 0x1000151A0, symSize: 0x20 }
  - { offset: 0x2D0D5, size: 0x8, addend: 0x0, symName: __ZNSt3__14pairIPPP7CSTNodeS4_EC1B8ne180100IS4_S4_Li0EEEOT_OT0_, symObjAddr: 0x32D0, symBinAddr: 0x1000151C0, symSize: 0x30 }
  - { offset: 0x2D133, size: 0x8, addend: 0x0, symName: __ZNSt3__14pairIPPP7CSTNodeS4_EC2B8ne180100IS4_S4_Li0EEEOT_OT0_, symObjAddr: 0x3300, symBinAddr: 0x1000151F0, symSize: 0x30 }
  - { offset: 0x2D191, size: 0x8, addend: 0x0, symName: __ZNSt3__118__unwrap_iter_implIPPP7CSTNodeLb1EE8__rewrapB8ne180100ES4_S4_, symObjAddr: 0x3330, symBinAddr: 0x100015220, symSize: 0x50 }
  - { offset: 0x2D1C1, size: 0x8, addend: 0x0, symName: __ZNSt3__114__split_bufferIPP7CSTNodeRNS_9allocatorIS3_EEE28__construct_at_end_with_sizeINS_13move_iteratorIPS3_EEEEvT_m, symObjAddr: 0x3380, symBinAddr: 0x100015270, symSize: 0xE0 }
  - { offset: 0x2D227, size: 0x8, addend: 0x0, symName: __ZNSt3__114__split_bufferIPP7CSTNodeRNS_9allocatorIS3_EEE21_ConstructTransactionC1B8ne180100EPPS3_m, symObjAddr: 0x34A0, symBinAddr: 0x100015390, symSize: 0x30 }
  - { offset: 0x2D26D, size: 0x8, addend: 0x0, symName: __ZNSt3__116allocator_traitsINS_9allocatorIPP7CSTNodeEEE9constructB8ne180100IS4_JS4_EvEEvRS5_PT_DpOT0_, symObjAddr: 0x34D0, symBinAddr: 0x1000153C0, symSize: 0x30 }
  - { offset: 0x2D2C4, size: 0x8, addend: 0x0, symName: __ZNSt3__114__split_bufferIPP7CSTNodeRNS_9allocatorIS3_EEE7__allocB8ne180100Ev, symObjAddr: 0x3500, symBinAddr: 0x1000153F0, symSize: 0x20 }
  - { offset: 0x2D2EA, size: 0x8, addend: 0x0, symName: __ZNKSt3__113move_iteratorIPPP7CSTNodeEdeB8ne180100Ev, symObjAddr: 0x3520, symBinAddr: 0x100015410, symSize: 0x20 }
  - { offset: 0x2D310, size: 0x8, addend: 0x0, symName: __ZNSt3__113move_iteratorIPPP7CSTNodeEppB8ne180100Ev, symObjAddr: 0x3540, symBinAddr: 0x100015430, symSize: 0x20 }
  - { offset: 0x2D336, size: 0x8, addend: 0x0, symName: __ZNSt3__114__split_bufferIPP7CSTNodeRNS_9allocatorIS3_EEE21_ConstructTransactionD1B8ne180100Ev, symObjAddr: 0x3560, symBinAddr: 0x100015450, symSize: 0x20 }
  - { offset: 0x2D360, size: 0x8, addend: 0x0, symName: __ZNSt3__114__split_bufferIPP7CSTNodeRNS_9allocatorIS3_EEE21_ConstructTransactionC2B8ne180100EPPS3_m, symObjAddr: 0x3580, symBinAddr: 0x100015470, symSize: 0x40 }
  - { offset: 0x2D3A6, size: 0x8, addend: 0x0, symName: __ZNSt3__19allocatorIPP7CSTNodeE9constructB8ne180100IS3_JS3_EEEvPT_DpOT0_, symObjAddr: 0x35C0, symBinAddr: 0x1000154B0, symSize: 0x20 }
  - { offset: 0x2D3FC, size: 0x8, addend: 0x0, symName: __ZNSt3__117__compressed_pairIPPP7CSTNodeRNS_9allocatorIS3_EEE6secondB8ne180100Ev, symObjAddr: 0x35E0, symBinAddr: 0x1000154D0, symSize: 0x20 }
  - { offset: 0x2D422, size: 0x8, addend: 0x0, symName: __ZNSt3__122__compressed_pair_elemIRNS_9allocatorIPP7CSTNodeEELi1ELb0EE5__getB8ne180100Ev, symObjAddr: 0x3600, symBinAddr: 0x1000154F0, symSize: 0x20 }
  - { offset: 0x2D448, size: 0x8, addend: 0x0, symName: __ZNSt3__114__split_bufferIPP7CSTNodeRNS_9allocatorIS3_EEE21_ConstructTransactionD2B8ne180100Ev, symObjAddr: 0x3620, symBinAddr: 0x100015510, symSize: 0x20 }
  - { offset: 0x2D472, size: 0x8, addend: 0x0, symName: __ZNKSt3__113move_iteratorIPPP7CSTNodeE4baseB8ne180100Ev, symObjAddr: 0x36B0, symBinAddr: 0x1000155A0, symSize: 0x20 }
  - { offset: 0x2D498, size: 0x8, addend: 0x0, symName: __ZNSt3__113move_iteratorIPPP7CSTNodeEC2B8ne180100ES4_, symObjAddr: 0x36D0, symBinAddr: 0x1000155C0, symSize: 0x20 }
  - { offset: 0x2D4D0, size: 0x8, addend: 0x0, symName: __ZNSt3__19allocatorIPP7CSTNodeE9constructB8ne180100IS3_JRKS3_EEEvPT_DpOT0_, symObjAddr: 0x36F0, symBinAddr: 0x1000155E0, symSize: 0x20 }
  - { offset: 0x2D526, size: 0x8, addend: 0x0, symName: __ZNSt3__19allocatorIP7CSTNodeE8allocateB8ne180100Em, symObjAddr: 0x3710, symBinAddr: 0x100015600, symSize: 0x50 }
  - { offset: 0x2D564, size: 0x8, addend: 0x0, symName: __ZNSt3__116allocator_traitsINS_9allocatorIP7CSTNodeEEE8max_sizeB8ne180100IS4_vEEmRKS4_, symObjAddr: 0x3760, symBinAddr: 0x100015650, symSize: 0x20 }
  - { offset: 0x2D592, size: 0x8, addend: 0x0, symName: __ZNKSt3__19allocatorIP7CSTNodeE8max_sizeB8ne180100Ev, symObjAddr: 0x37E0, symBinAddr: 0x100015670, symSize: 0x20 }
  - { offset: 0x2D5C2, size: 0x8, addend: 0x0, symName: __ZNKSt3__123__move_backward_trivialclB8ne180100IPP7CSTNodeS4_Li0EEENS_4pairIPT_PT0_EES7_S7_S9_, symObjAddr: 0x3990, symBinAddr: 0x100015800, symSize: 0x40 }
  - { offset: 0x2D62A, size: 0x8, addend: 0x0, symName: __ZNSt3__14pairIPPP7CSTNodeS4_EC1B8ne180100IRS4_S7_Li0EEEOT_OT0_, symObjAddr: 0x3A70, symBinAddr: 0x1000158E0, symSize: 0x30 }
  - { offset: 0x2D688, size: 0x8, addend: 0x0, symName: __ZNSt3__14pairIPPP7CSTNodeS4_EC2B8ne180100IRS4_S7_Li0EEEOT_OT0_, symObjAddr: 0x3AA0, symBinAddr: 0x100015910, symSize: 0x30 }
  - { offset: 0x2D6E6, size: 0x8, addend: 0x0, symName: __ZNSt3__114__split_bufferIPP7CSTNodeRNS_9allocatorIS3_EEEC2EmmS6_, symObjAddr: 0x3B50, symBinAddr: 0x100015940, symSize: 0xD0 }
  - { offset: 0x2D75A, size: 0x8, addend: 0x0, symName: __ZNSt3__117__compressed_pairIPPP7CSTNodeRNS_9allocatorIS3_EEEC1B8ne180100IDnS7_EEOT_OT0_, symObjAddr: 0x3C20, symBinAddr: 0x100015A10, symSize: 0x30 }
  - { offset: 0x2D7B2, size: 0x8, addend: 0x0, symName: __ZNSt3__117__compressed_pairIPPP7CSTNodeRNS_9allocatorIS3_EEEC2B8ne180100IDnS7_EEOT_OT0_, symObjAddr: 0x3C90, symBinAddr: 0x100015A80, symSize: 0x40 }
  - { offset: 0x2D80A, size: 0x8, addend: 0x0, symName: __ZNSt3__122__compressed_pair_elemIRNS_9allocatorIPP7CSTNodeEELi1ELb0EEC2B8ne180100IS6_vEEOT_, symObjAddr: 0x3CD0, symBinAddr: 0x100015AC0, symSize: 0x20 }
  - { offset: 0x2D84C, size: 0x8, addend: 0x0, symName: __ZNSt3__19allocatorIPP7CSTNodeE8allocateB8ne180100Em, symObjAddr: 0x3CF0, symBinAddr: 0x100015AE0, symSize: 0x50 }
  - { offset: 0x2D88A, size: 0x8, addend: 0x0, symName: __ZNSt3__116allocator_traitsINS_9allocatorIPP7CSTNodeEEE8max_sizeB8ne180100IS5_vEEmRKS5_, symObjAddr: 0x3D40, symBinAddr: 0x100015B30, symSize: 0x20 }
  - { offset: 0x2D8B8, size: 0x8, addend: 0x0, symName: __ZNKSt3__19allocatorIPP7CSTNodeE8max_sizeB8ne180100Ev, symObjAddr: 0x3D60, symBinAddr: 0x100015B50, symSize: 0x20 }
  - { offset: 0x2D8DE, size: 0x8, addend: 0x0, symName: __ZNSt3__122__allocator_destructorINS_9allocatorIP7CSTNodeEEEC2B8ne180100ERS4_m, symObjAddr: 0x3D80, symBinAddr: 0x100015B70, symSize: 0x30 }
  - { offset: 0x2D924, size: 0x8, addend: 0x0, symName: __ZNSt3__110unique_ptrIPP7CSTNodeNS_22__allocator_destructorINS_9allocatorIS2_EEEEEC2B8ne180100ILb1EvEES3_NS_16__dependent_typeINS_27__unique_ptr_deleter_sfinaeIS7_EEXT_EE20__good_rval_ref_typeE, symObjAddr: 0x3DB0, symBinAddr: 0x100015BA0, symSize: 0x40 }
  - { offset: 0x2D975, size: 0x8, addend: 0x0, symName: __ZNSt3__117__compressed_pairIPP7CSTNodeNS_22__allocator_destructorINS_9allocatorIS2_EEEEEC1B8ne180100IRS3_S7_EEOT_OT0_, symObjAddr: 0x3DF0, symBinAddr: 0x100015BE0, symSize: 0x30 }
  - { offset: 0x2D9CD, size: 0x8, addend: 0x0, symName: __ZNSt3__117__compressed_pairIPP7CSTNodeNS_22__allocator_destructorINS_9allocatorIS2_EEEEEC2B8ne180100IRS3_S7_EEOT_OT0_, symObjAddr: 0x3E20, symBinAddr: 0x100015C10, symSize: 0x40 }
  - { offset: 0x2DA25, size: 0x8, addend: 0x0, symName: __ZNSt3__122__compressed_pair_elemIPP7CSTNodeLi0ELb0EEC2B8ne180100IRS3_vEEOT_, symObjAddr: 0x3E60, symBinAddr: 0x100015C50, symSize: 0x20 }
  - { offset: 0x2DA67, size: 0x8, addend: 0x0, symName: __ZNSt3__122__compressed_pair_elemINS_22__allocator_destructorINS_9allocatorIP7CSTNodeEEEELi1ELb0EEC2B8ne180100IS6_vEEOT_, symObjAddr: 0x3E80, symBinAddr: 0x100015C70, symSize: 0x30 }
  - { offset: 0x2DAA9, size: 0x8, addend: 0x0, symName: __ZNKSt3__117__compressed_pairIPP7CSTNodeNS_22__allocator_destructorINS_9allocatorIS2_EEEEE5firstB8ne180100Ev, symObjAddr: 0x3EB0, symBinAddr: 0x100015CA0, symSize: 0x20 }
  - { offset: 0x2DACF, size: 0x8, addend: 0x0, symName: __ZNKSt3__122__compressed_pair_elemIPP7CSTNodeLi0ELb0EE5__getB8ne180100Ev, symObjAddr: 0x3ED0, symBinAddr: 0x100015CC0, symSize: 0x10 }
  - { offset: 0x2DAF5, size: 0x8, addend: 0x0, symName: __ZNSt3__117__compressed_pairIPP7CSTNodeNS_22__allocator_destructorINS_9allocatorIS2_EEEEE5firstB8ne180100Ev, symObjAddr: 0x3EE0, symBinAddr: 0x100015CD0, symSize: 0x20 }
  - { offset: 0x2DB1B, size: 0x8, addend: 0x0, symName: __ZNSt3__122__compressed_pair_elemIPP7CSTNodeLi0ELb0EE5__getB8ne180100Ev, symObjAddr: 0x3F00, symBinAddr: 0x100015CF0, symSize: 0x10 }
  - { offset: 0x2DB41, size: 0x8, addend: 0x0, symName: __ZNSt3__117__compressed_pairIPPP7CSTNodeNS_9allocatorIS3_EEE5firstB8ne180100Ev, symObjAddr: 0x3F10, symBinAddr: 0x100015D00, symSize: 0x20 }
  - { offset: 0x2DB67, size: 0x8, addend: 0x0, symName: __ZNSt3__122__compressed_pair_elemIPPP7CSTNodeLi0ELb0EE5__getB8ne180100Ev, symObjAddr: 0x3F30, symBinAddr: 0x100015D20, symSize: 0x10 }
  - { offset: 0x2DB8D, size: 0x8, addend: 0x0, symName: __ZNSt3__117__compressed_pairIPPP7CSTNodeRNS_9allocatorIS3_EEE5firstB8ne180100Ev, symObjAddr: 0x3F40, symBinAddr: 0x100015D30, symSize: 0x20 }
  - { offset: 0x2DBB3, size: 0x8, addend: 0x0, symName: __ZNSt3__110unique_ptrIPP7CSTNodeNS_22__allocator_destructorINS_9allocatorIS2_EEEEED2B8ne180100Ev, symObjAddr: 0x3F60, symBinAddr: 0x100015D50, symSize: 0x20 }
  - { offset: 0x2DBDD, size: 0x8, addend: 0x0, symName: __ZNSt3__110unique_ptrIPP7CSTNodeNS_22__allocator_destructorINS_9allocatorIS2_EEEEE5resetB8ne180100ES3_, symObjAddr: 0x3F80, symBinAddr: 0x100015D70, symSize: 0x70 }
  - { offset: 0x2DC21, size: 0x8, addend: 0x0, symName: __ZNSt3__117__compressed_pairIPP7CSTNodeNS_22__allocator_destructorINS_9allocatorIS2_EEEEE6secondB8ne180100Ev, symObjAddr: 0x3FF0, symBinAddr: 0x100015DE0, symSize: 0x20 }
  - { offset: 0x2DC47, size: 0x8, addend: 0x0, symName: __ZNSt3__122__allocator_destructorINS_9allocatorIP7CSTNodeEEEclB8ne180100EPS3_, symObjAddr: 0x4010, symBinAddr: 0x100015E00, symSize: 0x30 }
  - { offset: 0x2DC7B, size: 0x8, addend: 0x0, symName: __ZNSt3__122__compressed_pair_elemINS_22__allocator_destructorINS_9allocatorIP7CSTNodeEEEELi1ELb0EE5__getB8ne180100Ev, symObjAddr: 0x4040, symBinAddr: 0x100015E30, symSize: 0x10 }
  - { offset: 0x2DCA1, size: 0x8, addend: 0x0, symName: __ZNSt3__114__split_bufferIPP7CSTNodeRNS_9allocatorIS3_EEED2Ev, symObjAddr: 0x4050, symBinAddr: 0x100015E40, symSize: 0x70 }
  - { offset: 0x2DCCD, size: 0x8, addend: 0x0, symName: __ZNSt3__114__split_bufferIPP7CSTNodeRNS_9allocatorIS3_EEE5clearB8ne180100Ev, symObjAddr: 0x40C0, symBinAddr: 0x100015EB0, symSize: 0x20 }
  - { offset: 0x2DCF3, size: 0x8, addend: 0x0, symName: __ZNKSt3__114__split_bufferIPP7CSTNodeRNS_9allocatorIS3_EEE8capacityB8ne180100Ev, symObjAddr: 0x40E0, symBinAddr: 0x100015ED0, symSize: 0x30 }
  - { offset: 0x2DD19, size: 0x8, addend: 0x0, symName: __ZNSt3__114__split_bufferIPP7CSTNodeRNS_9allocatorIS3_EEE17__destruct_at_endB8ne180100EPS3_, symObjAddr: 0x4110, symBinAddr: 0x100015F00, symSize: 0x30 }
  - { offset: 0x2DD4C, size: 0x8, addend: 0x0, symName: __ZNSt3__114__split_bufferIPP7CSTNodeRNS_9allocatorIS3_EEE17__destruct_at_endB8ne180100EPS3_NS_17integral_constantIbLb0EEE, symObjAddr: 0x4140, symBinAddr: 0x100015F30, symSize: 0x80 }
  - { offset: 0x2DD8C, size: 0x8, addend: 0x0, symName: __ZNKSt3__114__split_bufferIPP7CSTNodeRNS_9allocatorIS3_EEE9__end_capB8ne180100Ev, symObjAddr: 0x41C0, symBinAddr: 0x100015FB0, symSize: 0x20 }
  - { offset: 0x2DDB2, size: 0x8, addend: 0x0, symName: __ZNKSt3__117__compressed_pairIPPP7CSTNodeRNS_9allocatorIS3_EEE5firstB8ne180100Ev, symObjAddr: 0x41E0, symBinAddr: 0x100015FD0, symSize: 0x20 }
  - { offset: 0x2DDD8, size: 0x8, addend: 0x0, symName: __ZNSt3__19allocatorIP7CSTNodeE9constructB8ne180100IS2_JRKS2_EEEvPT_DpOT0_, symObjAddr: 0x4200, symBinAddr: 0x100015FF0, symSize: 0x20 }
  - { offset: 0x2DE2E, size: 0x8, addend: 0x0, symName: __ZNKSt3__15dequeIP7CSTNodeNS_9allocatorIS2_EEE5emptyB8ne180100Ev, symObjAddr: 0x4220, symBinAddr: 0x100016010, symSize: 0x30 }
  - { offset: 0x2DE53, size: 0x8, addend: 0x0, symName: __ZNSt3__15dequeIP7CSTNodeNS_9allocatorIS2_EEE5frontEv, symObjAddr: 0x4250, symBinAddr: 0x100016040, symSize: 0x50 }
  - { offset: 0x2DE7A, size: 0x8, addend: 0x0, symName: __ZNSt3__15dequeIP7CSTNodeNS_9allocatorIS2_EEE9pop_frontEv, symObjAddr: 0x4EF0, symBinAddr: 0x100016090, symSize: 0xC0 }
  - { offset: 0x2DECF, size: 0x8, addend: 0x0, symName: __ZNKSt3__15dequeIP7CSTNodeNS_9allocatorIS2_EEE23__annotate_shrink_frontB8ne180100Emm, symObjAddr: 0x4FC0, symBinAddr: 0x100016160, symSize: 0x20 }
  - { offset: 0x2DF13, size: 0x8, addend: 0x0, symName: __ZNSt3__15dequeIP7CSTNodeNS_9allocatorIS2_EEE26__maybe_remove_front_spareB8ne180100Eb, symObjAddr: 0x4FE0, symBinAddr: 0x100016180, symSize: 0xC0 }
  - { offset: 0x2DF48, size: 0x8, addend: 0x0, symName: __ZNKSt3__15dequeIP7CSTNodeNS_9allocatorIS2_EEE20__front_spare_blocksB8ne180100Ev, symObjAddr: 0x50A0, symBinAddr: 0x100016240, symSize: 0x20 }
  - { offset: 0x2DF6D, size: 0x8, addend: 0x0, symName: __ZNSt3__15dequeIP7CSTNodeNS_9allocatorIS2_EEE9push_backEOS2_, symObjAddr: 0x50C0, symBinAddr: 0x100016260, symSize: 0xA0 }
  - { offset: 0x2DFB8, size: 0x8, addend: 0x0, symName: __ZNSt3__116allocator_traitsINS_9allocatorIP7CSTNodeEEE9constructB8ne180100IS3_JS3_EvEEvRS4_PT_DpOT0_, symObjAddr: 0x5160, symBinAddr: 0x100016300, symSize: 0x30 }
  - { offset: 0x2E00F, size: 0x8, addend: 0x0, symName: __ZNSt3__19allocatorIP7CSTNodeE9constructB8ne180100IS2_JS2_EEEvPT_DpOT0_, symObjAddr: 0x5190, symBinAddr: 0x100016330, symSize: 0x20 }
  - { offset: 0x32AF3, size: 0x8, addend: 0x0, symName: __ZNSt3__1eqB8ne180100IcNS_11char_traitsIcEENS_9allocatorIcEEEEbRKNS_12basic_stringIT_T0_T1_EEPKS6_, symObjAddr: 0x260, symBinAddr: 0x1000165B0, symSize: 0x90 }
  - { offset: 0x32B5A, size: 0x8, addend: 0x0, symName: __ZNSt3__1plB8ne180100IcNS_11char_traitsIcEENS_9allocatorIcEEEENS_12basic_stringIT_T0_T1_EEOS9_PKS6_, symObjAddr: 0x4960, symBinAddr: 0x10001AC10, symSize: 0x50 }
  - { offset: 0x32BB2, size: 0x8, addend: 0x0, symName: __ZNSt3__1neB8ne180100IcNS_11char_traitsIcEENS_9allocatorIcEEEEbRKNS_12basic_stringIT_T0_T1_EESB_, symObjAddr: 0x4AF0, symBinAddr: 0x10001AC60, symSize: 0x30 }
  - { offset: 0x32C0A, size: 0x8, addend: 0x0, symName: __ZNSt3__1plB8ne180100IcNS_11char_traitsIcEENS_9allocatorIcEEEENS_12basic_stringIT_T0_T1_EEOS9_SA_, symObjAddr: 0x4B20, symBinAddr: 0x10001AC90, symSize: 0x50 }
  - { offset: 0x32C62, size: 0x8, addend: 0x0, symName: __ZNSt3__1eqB8ne180100INS_9allocatorIcEEEEbRKNS_12basic_stringIcNS_11char_traitsIcEET_EES9_, symObjAddr: 0x59A0, symBinAddr: 0x10001AD20, symSize: 0x110 }
  - { offset: 0x34653, size: 0x8, addend: 0x0, symName: __ZN6Parser5parseEv, symObjAddr: 0x0, symBinAddr: 0x100016350, symSize: 0x30 }
  - { offset: 0x3467B, size: 0x8, addend: 0x0, symName: __ZN6Parser7programEv, symObjAddr: 0x30, symBinAddr: 0x100016380, symSize: 0x230 }
  - { offset: 0x346A3, size: 0x8, addend: 0x0, symName: __ZN6Parser14main_procedureEv, symObjAddr: 0x310, symBinAddr: 0x100016640, symSize: 0x1E0 }
  - { offset: 0x346CB, size: 0x8, addend: 0x0, symName: __ZN6Parser20function_declarationEv, symObjAddr: 0x4F0, symBinAddr: 0x100016820, symSize: 0x3D0 }
  - { offset: 0x346F3, size: 0x8, addend: 0x0, symName: __ZN6Parser21procedure_declarationEv, symObjAddr: 0x8C0, symBinAddr: 0x100016BF0, symSize: 0x340 }
  - { offset: 0x3471B, size: 0x8, addend: 0x0, symName: __ZN6Parser18datatype_specifierEv, symObjAddr: 0xC00, symBinAddr: 0x100016F30, symSize: 0x180 }
  - { offset: 0x34744, size: 0x8, addend: 0x0, symName: __ZN6Parser21declaration_statementEv, symObjAddr: 0xD80, symBinAddr: 0x1000170B0, symSize: 0x200 }
  - { offset: 0x3476C, size: 0x8, addend: 0x0, symName: __ZN6Parser6expectERKNSt3__112basic_stringIcNS0_11char_traitsIcEENS0_9allocatorIcEEEE, symObjAddr: 0xF80, symBinAddr: 0x1000172B0, symSize: 0x6D0 }
  - { offset: 0x347BF, size: 0x8, addend: 0x0, symName: __ZN6Parser15block_statementEv, symObjAddr: 0x1680, symBinAddr: 0x100017980, symSize: 0xF0 }
  - { offset: 0x347E7, size: 0x8, addend: 0x0, symName: __ZN6Parser14parameter_listEv, symObjAddr: 0x1770, symBinAddr: 0x100017A70, symSize: 0x120 }
  - { offset: 0x3480F, size: 0x8, addend: 0x0, symName: __ZN6Parser18compound_statementEv, symObjAddr: 0x1890, symBinAddr: 0x100017B90, symSize: 0x50 }
  - { offset: 0x34837, size: 0x8, addend: 0x0, symName: __ZN6Parser10identifierEv, symObjAddr: 0x18E0, symBinAddr: 0x100017BE0, symSize: 0x1D0 }
  - { offset: 0x34860, size: 0x8, addend: 0x0, symName: __ZN6Parser9statementEv, symObjAddr: 0x1AB0, symBinAddr: 0x100017DB0, symSize: 0x2F0 }
  - { offset: 0x34897, size: 0x8, addend: 0x0, symName: __ZN6Parser16return_statementEv, symObjAddr: 0x1DD0, symBinAddr: 0x1000180A0, symSize: 0x170 }
  - { offset: 0x348BF, size: 0x8, addend: 0x0, symName: __ZN6Parser19selection_statementEv, symObjAddr: 0x1F40, symBinAddr: 0x100018210, symSize: 0x410 }
  - { offset: 0x348E8, size: 0x8, addend: 0x0, symName: __ZN6Parser16printf_statementEv, symObjAddr: 0x2350, symBinAddr: 0x100018620, symSize: 0x270 }
  - { offset: 0x34911, size: 0x8, addend: 0x0, symName: __ZN6Parser19iteration_statementEv, symObjAddr: 0x25C0, symBinAddr: 0x100018890, symSize: 0x500 }
  - { offset: 0x3493A, size: 0x8, addend: 0x0, symName: __ZN6Parser20assignment_statementEv, symObjAddr: 0x2AC0, symBinAddr: 0x100018D90, symSize: 0x200 }
  - { offset: 0x34963, size: 0x8, addend: 0x0, symName: __ZN6Parser10expressionEv, symObjAddr: 0x2CE0, symBinAddr: 0x100018F90, symSize: 0x2B0 }
  - { offset: 0x3498C, size: 0x8, addend: 0x0, symName: __ZN6Parser36identifier_and_identifier_array_listEv, symObjAddr: 0x2F90, symBinAddr: 0x100019240, symSize: 0x250 }
  - { offset: 0x349B5, size: 0x8, addend: 0x0, symName: __ZN6Parser21user_defined_functionEv, symObjAddr: 0x31E0, symBinAddr: 0x100019490, symSize: 0x170 }
  - { offset: 0x349DE, size: 0x8, addend: 0x0, symName: __ZN6Parser16getchar_functionEv, symObjAddr: 0x3350, symBinAddr: 0x100019600, symSize: 0x1B0 }
  - { offset: 0x34A07, size: 0x8, addend: 0x0, symName: __ZN6Parser24initialization_statementEv, symObjAddr: 0x3500, symBinAddr: 0x1000197B0, symSize: 0x190 }
  - { offset: 0x34A30, size: 0x8, addend: 0x0, symName: __ZN6Parser18boolean_expressionEv, symObjAddr: 0x3690, symBinAddr: 0x100019940, symSize: 0x350 }
  - { offset: 0x34A59, size: 0x8, addend: 0x0, symName: __ZN6Parser20numerical_expressionEv, symObjAddr: 0x39E0, symBinAddr: 0x100019C90, symSize: 0x140 }
  - { offset: 0x34A82, size: 0x8, addend: 0x0, symName: __ZN6Parser16boolean_operatorEv, symObjAddr: 0x3B20, symBinAddr: 0x100019DD0, symSize: 0x70 }
  - { offset: 0x34AAB, size: 0x8, addend: 0x0, symName: __ZN6Parser21relational_expressionEv, symObjAddr: 0x3B90, symBinAddr: 0x100019E40, symSize: 0x120 }
  - { offset: 0x34AD4, size: 0x8, addend: 0x0, symName: __ZN6Parser17numerical_operandEv, symObjAddr: 0x3CB0, symBinAddr: 0x100019F60, symSize: 0x640 }
  - { offset: 0x34AFD, size: 0x8, addend: 0x0, symName: __ZN6Parser18numerical_operatorEv, symObjAddr: 0x42F0, symBinAddr: 0x10001A5A0, symSize: 0x350 }
  - { offset: 0x34B26, size: 0x8, addend: 0x0, symName: __ZN6Parser21identifier_array_listEv, symObjAddr: 0x4640, symBinAddr: 0x10001A8F0, symSize: 0x1F0 }
  - { offset: 0x34B4F, size: 0x8, addend: 0x0, symName: __ZN6Parser15identifier_listEv, symObjAddr: 0x4830, symBinAddr: 0x10001AAE0, symSize: 0x130 }
  - { offset: 0x34B78, size: 0x8, addend: 0x0, symName: __ZN3CST7setRootEP7CSTNode, symObjAddr: 0x4B70, symBinAddr: 0x10001ACE0, symSize: 0x20 }
  - { offset: 0x34BAC, size: 0x8, addend: 0x0, symName: __ZN3CST7getRootEv, symObjAddr: 0x4BC0, symBinAddr: 0x10001AD00, symSize: 0x20 }
  - { offset: 0x34BD2, size: 0x8, addend: 0x0, symName: __ZNSt3__111char_traitsIcE7compareB8ne180100EPKcS3_m, symObjAddr: 0x5AB0, symBinAddr: 0x10001AE30, symSize: 0x30 }
...
